(dp0
S'!manc'
p1
I1
sS'!ipod'
p2
I1
sS'!many'
p3
I55
sS'!followed'
p4
I3
sS'!findit'
p5
I1
sS'!lily'
p6
I2
sS'!aim'
p7
I1
sS'!meni'
p8
I1
sS'!directly'
p9
I3
sS'!elligible'
p10
I2
sS'!coool'
p11
I1
sS'!avaible'
p12
I1
sS'!filled'
p13
I2
sS'!ment'
p14
I4
sS'!air'
p15
I1
sS'!restful'
p16
I1
sS'!able'
p17
I117
sS'!feasible'
p18
I2
sS'!xd'
p19
I2
sS'!losin'
p20
I1
sS'!betting'
p21
I1
sS'!httpbitlyoaoe'
p22
I1
sS'!minequot'
p23
I1
sS'!pissing'
p24
I2
sS'!preggers'
p25
I1
sS'!111'
p26
I1
sS'!worrying'
p27
I1
sS'!lukin'
p28
I2
sS'!tip'
p29
I1
sS'!buddies'
p30
I1
sS'!likin'
p31
I4
sS'!3dt'
p32
I1
sS'!minuscule'
p33
I1
sS'!feelg'
p34
I1
sS'!try'
p35
I17
sS'!mahmoud'
p36
I1
sS'!rays'
p37
I1
sS'!feeln'
p38
I2
sS'!killed'
p39
I2
sS'!modify'
p40
I1
sS'!primary'
p41
I1
sS'!podcast'
p42
I1
sS'!stuck'
p43
I11
sS'!jaga'
p44
I1
sS'!bloody'
p45
I10
sS'!shipping'
p46
I1
sS'!intriguing'
p47
I1
sS'!dating'
p48
I1
sS'!replay'
p49
I5
sS'!mind'
p50
I9
sS'!mine'
p51
I48
sS'!surei'
p52
I1
sS'!allowed'
p53
I243
sS'!stopo'
p54
I2
sS'!possibly'
p55
I7
sS'!charred'
p56
I1
sS'!explaining'
p57
I1
sS'!truly'
p58
I1
sS'!hungover'
p59
I4
sS'!possible'
p60
I47
sS'!gt21'
p61
I1
sS'!stopp'
p62
I1
sS'!before'
p63
I7
sS'!tyson'
p64
I1
sS'!dry'
p65
I3
sS'!39'
p66
I1
sS'!generally'
p67
I1
sS'!treating'
p68
I2
sS'!allergic'
p69
I7
sS'!being'
p70
I340
sS'!cute'
p71
I21
sS'!amused'
p72
I16
sS'!cashed'
p73
I2
sS'!accept'
p74
I24
sS'!check'
p75
I33
sS'!sneak'
p76
I3
sS'!skype'
p77
I4
sS'!ftp'
p78
I1
sS'!hacked'
p79
I2
sS'!sppear'
p80
I2
sS'!needs'
p81
I1
sS'!3g'
p82
I2
sS'!3d'
p83
I2
sS'!needy'
p84
I1
sS'!literally'
p85
I7
sS'!relent'
p86
I1
sS'!busy'
p87
I14
sS'!panda'
p88
I1
sS'!overthrow'
p89
I1
sS'!destined'
p90
I2
sS'!willing'
p91
I7
sS'!filming'
p92
I1
sS'!24hrs'
p93
I1
sS'!necessary'
p94
I6
sS'!cross'
p95
I1
sS'!proud'
p96
I15
sS'!attend'
p97
I27
sS'!lightning'
p98
I1
sS'!revised'
p99
I1
sS'!quit'
p100
I19
sS'!registered'
p101
I3
sS'!equality'
p102
I1
sS'!chocolate'
p103
I1
sS'!leis'
p104
I1
sS'!drunk'
p105
I14
sS'!upset'
p106
I5
sS'!maliciously'
p107
I1
sS'!current'
p108
I1
sS'!reserve'
p109
I1
sS'!divorce'
p110
I2
sS'!quotfeelquot'
p111
I1
sS'!cite'
p112
I1
sS'!terribly'
p113
I4
sS'!flood'
p114
I1
sS'!blonde'
p115
I1
sS'!trap'
p116
I1
sS'!entitled'
p117
I1
sS'!clean'
p118
I6
sS'!clear'
p119
I7
sS'!wtk'
p120
I1
sS'!wtf'
p121
I1
sS'!firgure'
p122
I1
sS'!hate'
p123
I18
sS'!happier'
p124
I1
sS'!evn'
p125
I1
sS'!taco'
p126
I1
sS'!eve'
p127
I1
sS'!floss'
p128
I2
sS'!nail'
p129
I1
sS'!careful'
p130
I4
sS'!thoughtear'
p131
I1
sS'!bothered'
p132
I4
sS'!sydney'
p133
I1
sS'!babe'
p134
I1
sS'!lost'
p135
I7
sS'!forgotten'
p136
I1
sS'!baby'
p137
I3
sS'!alleviate'
p138
I1
sS'!lame'
p139
I5
sS'!opened'
p140
I3
sS'!lose'
p141
I27
sS'!shave'
p142
I2
sS'!hopefully'
p143
I2
sS'!europe'
p144
I1
sS'!cookies'
p145
I1
sS'!appearing'
p146
I3
sS'!revision'
p147
I1
sS'!david'
p148
I3
sS'!realesed'
p149
I1
sS'!2cycle'
p150
I1
sS'!better'
p151
I21
sS'!wrkn'
p152
I1
sS'!wont'
p153
I1
sS'!say'
p154
I136
sS'!jd'
p155
I1
sS'!perform'
p156
I2
sS'!honestly'
p157
I1
sS'!chu'
p158
I1
sS'!iran88'
p159
I2
sS'!refueling'
p160
I1
sS'!worth'
p161
I74
sS'!chatted'
p162
I2
sS'!pickup'
p163
I1
sS'!tgat'
p164
I1
sS'!friends'
p165
I12
sS'!readampmy'
p166
I1
sS'!fluffy'
p167
I1
sS'!joining'
p168
I2
sS'!scottish'
p169
I1
sS'!cleaning'
p170
I2
sS'!recieved'
p171
I3
sS'!gahhh'
p172
I1
sS'!needbased'
p173
I1
sS'!supprised'
p174
I1
sS'!fired'
p175
I3
sS'!infuriated'
p176
I1
sS'!recognise'
p177
I4
sS'!startin'
p178
I1
sS'!jelous'
p179
I1
sS'!prison'
p180
I1
sS'!wakeup'
p181
I1
sS'!sierra'
p182
I1
sS'!bulky'
p183
I1
sS'!cools'
p184
I1
sS'!nikon'
p185
I1
sS'!courtyard'
p186
I1
sS'!uber'
p187
I1
sS'!20something'
p188
I1
sS'!sorted'
p189
I2
sS'!90s'
p190
I1
sS'!frantically'
p191
I1
sS'!thinking'
p192
I12
sS'!frozen'
p193
I1
sS'!goodbye'
p194
I3
sS'!recommended'
p195
I3
sS'!argue'
p196
I1
sS'!301'
p197
I1
sS'!awkward'
p198
I2
sS'!20'
p199
I3
sS'!21'
p200
I19
sS'!because'
p201
I66
sS'!24'
p202
I1
sS'!25'
p203
I3
sS'!27'
p204
I1
sS'!transferrable'
p205
I1
sS'!personally'
p206
I2
sS'!really'
p207
I615
sS'!blip'
p208
I5
sS'!rollerskate'
p209
I1
sS'!rooting'
p210
I1
sS'!embeddable'
p211
I1
sS'!concentrate'
p212
I50
sS'!learning'
p213
I1
sS'!developng'
p214
I1
sS'!alwaya'
p215
I1
sS'!host'
p216
I1
sS'!carry'
p217
I9
sS'!reencode'
p218
I1
sS'!official'
p219
I2
sS'!undersant'
p220
I1
sS'!train'
p221
I2
sS'!krocknsoul'
p222
I1
sS'!forwarding'
p223
I1
sS'!set'
p224
I13
sS'!insure'
p225
I2
sS'!taste'
p226
I21
sS'!sen'
p227
I1
sS'!flowing'
p228
I1
sS'!creat'
p229
I1
sS'!see'
p230
I1015
sS'!enought'
p231
I4
sS'!plus'
p232
I3
sS'!now'
p233
I55
sS'!wus'
p234
I1
sS'!nor'
p235
I1
sS'!close'
p236
I26
sS'!reeling'
p237
I1
sS'!noe'
p238
I1
sS'!plug'
p239
I2
sS'!emotional'
p240
I1
sS'!negative'
p241
I1
sS'!brass'
p242
I1
sS'!lvatt'
p243
I1
sS'!repairing'
p244
I1
sS'!post'
p245
I33
sS'!availablequot'
p246
I1
sS'!poss'
p247
I1
sS'!dislike'
p248
I1
sS'!no1'
p249
I1
sS'!gauge'
p250
I1
sS'!alan'
p251
I1
sS'!frankie'
p252
I1
sS'!christina'
p253
I1
sS'!mampms'
p254
I1
sS'!wasting'
p255
I1
sS'!gud'
p256
I10
sS'!blipping'
p257
I1
sS'!handsome'
p258
I1
sS'!stopped'
p259
I7
sS'!revising'
p260
I3
sS'!guy'
p261
I1
sS'!whinge'
p262
I1
sS'!had'
p263
I57
sS'!impressive'
p264
I2
sS'!bob'
p265
I1
sS'!logical'
p266
I2
sS'!it'
p267
I78
sS'!televised'
p268
I5
sS'!visited'
p269
I3
sS'!is'
p270
I12
sS'!boo'
p271
I2
sS'!im'
p272
I148
sS'!il'
p273
I2
sS'!hav'
p274
I7
sS'!in'
p275
I812
sS'!snort'
p276
I1
sS'!arnd'
p277
I1
sS'!id'
p278
I5
sS'!if'
p279
I31
sS'!haz'
p280
I3
sS'!ours'
p281
I6
sS'!dedication'
p282
I2
sS'!incorrectly'
p283
I1
sS'!speak'
p284
I48
sS'!tater'
p285
I1
sS'!for'
p286
I241
sS'!singing'
p287
I5
sS'!fox'
p288
I1
sS'!freelancing'
p289
I1
sS'!done'
p290
I73
sS'!linked'
p291
I1
sS'!putting'
p292
I7
sS'!suggested'
p293
I1
sS'!dont'
p294
I7
sS'!sorocabas'
p295
I1
sS'!edlo247'
p296
I1
sS'!memphis'
p297
I1
sS'!tbar03'
p298
I1
sS'!exaggerating'
p299
I1
sS'!used'
p300
I49
sS'!depressed'
p301
I4
sS'!killing'
p302
I1
sS'!usew'
p303
I1
sS'!user'
p304
I2
sS'!pick'
p305
I28
sS'!cuddle'
p306
I4
sS'!scratch'
p307
I7
sS'!aww'
p308
I1
sS'!windoze'
p309
I1
sS'!glad'
p310
I4
sS'!officially'
p311
I5
sS'!glam'
p312
I1
sS'!meant'
p313
I33
sS'!soon'
p314
I14
sS'!tearyeyed'
p315
I1
sS'!supported'
p316
I11
sS'!meand'
p317
I1
sS'!effin'
p318
I5
sS'!awh'
p319
I1
sS'!sillay'
p320
I1
sS'!stressed'
p321
I3
sS'!tryna'
p322
I3
sS'!youtube'
p323
I1
sS'!brilliantly'
p324
I1
sS'!sicker'
p325
I2
sS'!beside'
p326
I1
sS'!common'
p327
I1
sS'!twitpic'
p328
I5
sS'!reely'
p329
I1
sS'!land'
p330
I2
sS'!syncing'
p331
I1
sS'!missin'
p332
I2
sS'!phdproductive'
p333
I1
sS'!combine'
p334
I1
sS'!regular'
p335
I2
sS'!part'
p336
I18
sS'!mistaken'
p337
I6
sS'!f\xc3\xaf\xc2\xbf\xc2\xbdnd'
p338
I1
sS'!hope'
p339
I8
sS'!sentences'
p340
I2
sS'!show'
p341
I79
sS'!yetin'
p342
I1
sS'!disney'
p343
I1
sS'!motivate'
p344
I6
sS'!asleep'
p345
I10
sS'!bedtime'
p346
I1
sS'!hurting'
p347
I2
sS'!having'
p348
I348
sS'!image'
p349
I1
sS'!should'
p350
I1
sS'!shining'
p351
I3
sS'!louis'
p352
I1
sS'!commentaccount'
p353
I1
sS'!strep'
p354
I3
sS'!store'
p355
I1
sS'!webcamy'
p356
I1
sS'!storm'
p357
I1
sS'!koo'
p358
I1
sS'!14'
p359
I1
sS'!17'
p360
I1
sS'!carded'
p361
I1
sS'!uninvent'
p362
I1
sS'!13'
p363
I1
sS'!diabetic'
p364
I1
sS'!19'
p365
I1
sS'!18'
p366
I4
sS'!surfing'
p367
I1
sS'!cheat'
p368
I3
sS'!turned'
p369
I2
sS'!snedwan'
p370
I1
sS'!cure'
p371
I7
sS'!unlike'
p372
I2
sS'!curl'
p373
I2
sS'!expandin'
p374
I1
sS'!evenm'
p375
I1
sS'!evenn'
p376
I1
sS'!spotting'
p377
I1
sS'!parade'
p378
I1
sS'!bite'
p379
I3
sS'!resting'
p380
I1
sS'!sunshine'
p381
I1
sS'!reverse'
p382
I1
sS'!true'
p383
I77
sS'!mascara'
p384
I1
sS'!metal'
p385
I2
sS'!delicious'
p386
I3
sS'!fri'
p387
I2
sS'!whats'
p388
I3
sS'!1h'
p389
I1
sS'!frm'
p390
I1
sS'!creepy'
p391
I3
sS'!performing'
p392
I8
sS'!hastags'
p393
I1
sS'!applicable'
p394
I2
sS'!list'
p395
I1
sS'!wussu'
p396
I1
sS'!hanging'
p397
I11
sS'!hav2'
p398
I1
sS'!manufacture'
p399
I1
sS'!pimms'
p400
I1
sS'!recorded'
p401
I3
sS'!overlap'
p402
I1
sS'!oblivious'
p403
I1
sS'!rlly'
p404
I5
sS'!writing'
p405
I7
sS'!optimal'
p406
I1
sS'!wanting'
p407
I55
sS'!permiting'
p408
I1
sS'!nickis'
p409
I1
sS'!have'
p410
I771
sS'!ones'
p411
I1
sS'!born'
p412
I2
sS'!defend'
p413
I3
sS'!valley'
p414
I1
sS'!logged'
p415
I3
sS'!april'
p416
I1
sS'!likein'
p417
I1
sS'!swine'
p418
I24
sS'!swing'
p419
I7
sS'!aging'
p420
I1
sS'!success'
p421
I1
sS'!kool'
p422
I12
sS'!omgitsnigella'
p423
I1
sS'!counting'
p424
I6
sS'!frigging'
p425
I1
sS'!communicate'
p426
I7
sS'!bother'
p427
I9
sS'!lovin'
p428
I7
sS'!sleepingg'
p429
I1
sS'!call'
p430
I85
sS'!juicy'
p431
I1
sS'!appeal'
p432
I1
sS'!bullshit'
p433
I1
sS'!suppsed'
p434
I1
sS'!calgary'
p435
I1
sS'!waitlove'
p436
I1
sS'!goring'
p437
I1
sS'!appear'
p438
I5
sS'!accepting'
p439
I5
sS'!ha'
p440
I1
sS'!hg'
p441
I1
sS'!hd'
p442
I2
sS'!he'
p443
I20
sS'!twenty'
p444
I1
sS'!dudes'
p445
I1
sS'!dreading'
p446
I1
sS'!diss'
p447
I1
sS'!hv'
p448
I1
sS'!experiment'
p449
I1
sS'!maccas'
p450
I1
sS'!anywhere'
p451
I6
sS'!flash'
p452
I1
sS'!pleased'
p453
I17
sS'!hating'
p454
I3
sS'!irc\xc3\x82\xc2\xb4ing'
p455
I1
sS'!plan'
p456
I3
sS'!realeasing'
p457
I1
sS'!number'
p458
I1
sS'!stayin'
p459
I1
sS'!someone'
p460
I8
sS'!assume'
p461
I1
sS'!justify'
p462
I14
sS'!fckn'
p463
I1
sS'!visibly'
p464
I1
sS'!hug'
p465
I4
sS'!visible'
p466
I1
sS'!eni'
p467
I1
sS'!nice'
p468
I199
sS'!recharge'
p469
I1
sS'!lucky'
p470
I5
sS'!drawing'
p471
I1
sS'!chris'
p472
I1
sS'!called'
p473
I4
sS'!drama'
p474
I1
sS'!rech'
p475
I1
sS'!cant'
p476
I6
sS'!mask'
p477
I1
sS'!changing'
p478
I4
sS'!seein'
p479
I9
sS'!california'
p480
I1
sS'!exclusively'
p481
I1
sS'!good180'
p482
I1
sS'!vore'
p483
I1
sS'!short'
p484
I7
sS'!doubt'
p485
I1
sS'!middle'
p486
I1
sS'!silly'
p487
I2
sS'!ate'
p488
I1
sS'!style'
p489
I1
sS'!advertise'
p490
I1
sS'!puppies'
p491
I2
sS'!atm'
p492
I1
sS'!soap'
p493
I1
sS'!honey'
p494
I1
sS'!redeem'
p495
I1
sS'!itsnickjonas'
p496
I1
sS'!alowed'
p497
I3
sS'!soak'
p498
I1
sS'!folowing'
p499
I1
sS'!3gb'
p500
I1
sS'!kept'
p501
I3
sS'!what'
p502
I87
sS'!bicoastal'
p503
I1
sS'!team'
p504
I1
sS'!smack'
p505
I1
sS'!3gs'
p506
I2
sS'!tear'
p507
I3
sS'!match'
p508
I7
sS'!stress'
p509
I5
sS'!weighed'
p510
I1
sS'!caturday'
p511
I1
sS'!accomplished'
p512
I1
sS'!pass'
p513
I8
sS'!waaahh'
p514
I1
sS'!surface'
p515
I1
sS'!linking'
p516
I3
sS'!recall'
p517
I10
sS'!sourceforge'
p518
I1
sS'!disclose'
p519
I3
sS'!piggy'
p520
I1
sS'!surrounded'
p521
I1
sS'!submitted'
p522
I1
sS'!subscribed'
p523
I1
sS'!others'
p524
I2
sS'!react'
p525
I1
sS'!updated'
p526
I15
sS'!reach'
p527
I37
sS'!byue'
p528
I1
sS'!minneapolis'
p529
I1
sS'!touring'
p530
I5
sS'!rip'
p531
I2
sS'!contribute'
p532
I3
sS'!buid'
p533
I1
sS'!beliveve'
p534
I1
sS'!impresed'
p535
I1
sS'!progress'
p536
I1
sS'!surf'
p537
I6
sS'!hangover'
p538
I1
sS'!sure'
p539
I924
sS'!premium'
p540
I1
sS'!beef'
p541
I2
sS'!happpyy'
p542
I1
sS'!been'
p543
I203
sS'!popular'
p544
I8
sS'!beer'
p545
I1
sS'!tonght'
p546
I1
sS'!warn'
p547
I1
sS'!incinerated'
p548
I1
sS'!wednesday'
p549
I2
sS'!hiding'
p550
I1
sS'!wishhh'
p551
I1
sS'!cancer'
p552
I2
sS'!cancel'
p553
I9
sS'!goona'
p554
I1
sS'!belived'
p555
I1
sS'!belivee'
p556
I2
sS'!crave'
p557
I1
sS'!dynamically'
p558
I1
sS'!threaten'
p559
I1
sS'!whistle'
p560
I9
sS'!trust'
p561
I11
sS'!crapix'
p562
I1
sS'!harmonize'
p563
I1
sS'!od'
p564
I1
sS'!avail'
p565
I4
sS'!men'
p566
I1
sS'!remembering'
p567
I2
sS'!on'
p568
I498
sS'!movingquot'
p569
I1
sS'!ok'
p570
I35
sS'!oh'
p571
I10
sS'!mex'
p572
I1
sS'!ou'
p573
I2
sS'!shake'
p574
I15
sS'!httpyfrogcomarw7sj'
p575
I1
sS'!or'
p576
I12
sS'!into'
p577
I36
sS'!met'
p578
I7
sS'!resurface'
p579
I1
sS'!upgrading'
p580
I4
sS'!great'
p581
I37
sS'!scrolled'
p582
I1
sS'!crowded'
p583
I1
sS'!hooked'
p584
I1
sS'!sleepcan'
p585
I1
sS'!choiring'
p586
I1
sS'!fml'
p587
I1
sS'!beach'
p588
I2
sS'!using'
p589
I31
sS'!doesnt'
p590
I1
sS'!quotdamnquot'
p591
I1
sS'!shocking'
p592
I2
sS'!evengetting'
p593
I1
sS'!yappy'
p594
I1
sS'!giong'
p595
I1
sS'!arguing'
p596
I1
sS'!ordering'
p597
I1
sS'!quotback'
p598
I1
sS'!failz'
p599
I1
sS'!brotherly'
p600
I1
sS'!confident'
p601
I2
sS'!hittin'
p602
I1
sS'!universally'
p603
I1
sS'!shut'
p604
I23
sS'!headed'
p605
I1
sS'!ohhh'
p606
I1
sS'!grandpas'
p607
I1
sS'!khorovats'
p608
I1
sS'!edible'
p609
I2
sS'!present'
p610
I3
sS'!incredibly'
p611
I1
sS'!beable'
p612
I1
sS'!youuu'
p613
I1
sS'!mark'
p614
I2
sS'!multitaskafraid'
p615
I1
sS'!nkotb'
p616
I1
sS'!dranl'
p617
I1
sS'!yetactually'
p618
I1
sS'!shooting'
p619
I4
sS'!haveing'
p620
I1
sS'!nervous'
p621
I2
sS'!themselves'
p622
I1
sS'!adjust'
p623
I1
sS'!difficult'
p624
I2
sS'!unfreeze'
p625
I1
sS'!tickle'
p626
I1
sS'!drink'
p627
I63
sS'!copypaste'
p628
I1
sS'!robert'
p629
I2
sS'!fare'
p630
I6
sS'!downloaded'
p631
I2
sS'!sunny'
p632
I29
sS'!condusive'
p633
I1
sS'!specifically'
p634
I1
sS'!staying'
p635
I13
sS'!p90x'
p636
I1
sS'!transferable'
p637
I1
sS'!goquot'
p638
I1
sS'!coping'
p639
I5
sS'!greeted'
p640
I1
sS'!landlords'
p641
I1
sS'!jack'
p642
I2
sS'!directv'
p643
I1
sS'!politicians'
p644
I1
sS'!meddle'
p645
I1
sS'!searching'
p646
I1
sS'!something'
p647
I19
sS'!comprehending'
p648
I1
sS'!dday'
p649
I1
sS'!comee'
p650
I1
sS'!selected'
p651
I2
sS'!party'
p652
I16
sS'!versed'
p653
I1
sS'!comes'
p654
I1
sS'!stiff'
p655
I1
sS'!zombie'
p656
I1
sS'!felling'
p657
I5
sS'!pregnant'
p658
I3
sS'!jailbroken'
p659
I2
sS'!purposefully'
p660
I1
sS'!workingquot'
p661
I1
sS'!vtnz'
p662
I1
sS'!were'
p663
I6
sS'!social'
p664
I1
sS'!hide'
p665
I3
sS'!insincere'
p666
I1
sS'!3093'
p667
I1
sS'!knowin'
p668
I6
sS'!space'
p669
I1
sS'!cried'
p670
I3
sS'!popping'
p671
I2
sS'!faces'
p672
I1
sS'!wapanese'
p673
I1
sS'!appreciate'
p674
I12
sS'!cries'
p675
I3
sS'!local'
p676
I5
sS'!girls'
p677
I1
sS'!socks'
p678
I1
sS'!75'
p679
I1
sS'!actual'
p680
I1
sS'!rite'
p681
I4
sS'!shiny'
p682
I2
sS'!goood'
p683
I2
sS'!folgers'
p684
I1
sS'!complainingbut'
p685
I1
sS'!retarded'
p686
I1
sS'!said'
p687
I2
sS'!morning'
p688
I3
sS'!annoy'
p689
I2
sS'!cycling'
p690
I1
sS'!girl6'
p691
I1
sS'!clearly'
p692
I1
sS'!pawleys'
p693
I1
sS'!loking'
p694
I1
sS'!hmph'
p695
I1
sS'!shit'
p696
I3
sS'!sunburned'
p697
I1
sS'!ship'
p698
I7
sS'!neutering'
p699
I1
sS'!chatprotoin'
p700
I1
sS'!twittermail'
p701
I1
sS'!establish'
p702
I1
sS'!knew'
p703
I1
sS'!poorly'
p704
I1
sS'!logging'
p705
I3
sS'!exercise'
p706
I1
sS'!china'
p707
I1
sS'!bedbugs'
p708
I1
sS'!3hr'
p709
I1
sS'!reupholster'
p710
I1
sS'!referring'
p711
I1
sS'!httpmylocme2lyh'
p712
I1
sS'!then'
p713
I22
sS'!them'
p714
I6
sS'!east'
p715
I2
sS'!spin'
p716
I1
sS'!ther'
p717
I2
sS'!fly'
p718
I14
sS'!flu'
p719
I3
sS'!they'
p720
I53
sS'!spic'
p721
I1
sS'!leaders'
p722
I1
sS'!finds'
p723
I1
sS'!she'
p724
I13
sS'!beileve'
p725
I2
sS'!graduation'
p726
I1
sS'!appears'
p727
I2
sS'!shy'
p728
I2
sS'!quotcool'
p729
I1
sS'!workinn'
p730
I2
sS'!working'
p731
I801
sS'!lettiing'
p732
I1
sS'!once'
p733
I4
sS'!trade'
p734
I1
sS'!httpbitlywqisw'
p735
I1
sS'!authorized'
p736
I1
sS'!recomended'
p737
I1
sS'!refusing'
p738
I1
sS'!optimistic'
p739
I1
sS'!conference'
p740
I1
sS'!naughty'
p741
I1
sS'!tutorials'
p742
I1
sS'!spending'
p743
I5
sS'!flown'
p744
I1
sS'!connected'
p745
I4
sS'!sing'
p746
I49
sS'!fast'
p747
I8
sS'!name'
p748
I7
sS'!tryin'
p749
I2
sS'!finding'
p750
I15
sS'!backtest'
p751
I1
sS'!responsible'
p752
I3
sS'!steal'
p753
I4
sS'!steam'
p754
I2
sS'!bully'
p755
I1
sS'!intentionally'
p756
I2
sS'!health'
p757
I1
sS'!invited'
p758
I35
sS'!charging'
p759
I1
sS'!unbundled'
p760
I1
sS'!workig'
p761
I1
sS'!no'
p762
I28
sS'!workin'
p763
I32
sS'!ni'
p764
I1
sS'!fitting'
p765
I1
sS'!replaceable'
p766
I1
sS'!ny'
p767
I2
sS'!nz'
p768
I1
sS'!ulu'
p769
I1
sS'!teleporters'
p770
I1
sS'!adam'
p771
I1
sS'!molly'
p772
I1
sS'!buying'
p773
I26
sS'!delaying'
p774
I1
sS'!snowed'
p775
I1
sS'!blv'
p776
I1
sS'!describe'
p777
I15
sS'!hire'
p778
I1
sS'!encouraged'
p779
I1
sS'!looked'
p780
I3
sS'!applyquot'
p781
I1
sS'!across'
p782
I2
sS'!liive'
p783
I1
sS'!interestin'
p784
I1
sS'!firefox'
p785
I3
sS'!prescribed'
p786
I2
sS'!seaech'
p787
I1
sS'!grade'
p788
I1
sS'!updatequot'
p789
I1
sS'!cali'
p790
I1
sS'!uploaded'
p791
I1
sS'!calm'
p792
I2
sS'!spoil'
p793
I4
sS'!asked'
p794
I2
sS'!forward'
p795
I3
sS'!cell'
p796
I1
sS'!yea'
p797
I1
sS'!meez'
p798
I1
sS'!meet'
p799
I28
sS'!electrocuted'
p800
I1
sS'!vote'
p801
I78
sS'!yet'
p802
I320
sS'!grumble'
p803
I1
sS'!yep'
p804
I1
sS'!lookong'
p805
I1
sS'!old'
p806
I16
sS'!ole'
p807
I1
sS'!are'
p808
I6
sS'!chekked'
p809
I1
sS'!kewel'
p810
I1
sS'!stokedi'
p811
I1
sS'!ruined'
p812
I2
sS'!locked'
p813
I4
sS'!booze'
p814
I1
sS'!sept'
p815
I1
sS'!doubley'
p816
I1
sS'!quotfryquot'
p817
I1
sS'!tech'
p818
I1
sS'!dload'
p819
I1
sS'!satisfied'
p820
I9
sS'!remail'
p821
I1
sS'!jon'
p822
I2
sS'!facecbook'
p823
I1
sS'!salted'
p824
I1
sS'!job'
p825
I1
sS'!joe'
p826
I2
sS'!jog'
p827
I1
sS'!sleeing'
p828
I1
sS'!expensive'
p829
I3
sS'!stuff'
p830
I1
sS'!hardcore'
p831
I1
sS'!60'
p832
I3
sS'!invite'
p833
I8
sS'!jonas'
p834
I1
sS'!arriving'
p835
I2
sS'!sleep\xc3\xa2\xe2\x82\xac\xc2\xa6'
p836
I1
sS'!foun'
p837
I1
sS'!quot14flarequot'
p838
I1
sS'!register'
p839
I5
sS'!lunch'
p840
I3
sS'!paul'
p841
I1
sS'!hows'
p842
I1
sS'!sightsing'
p843
I1
sS'!silent'
p844
I1
sS'!56\xc3\x82\xc2\xb0'
p845
I1
sS'!improving'
p846
I4
sS'!comfy'
p847
I5
sS'!alone'
p848
I67
sS'!pdfamphardcopy'
p849
I1
sS'!peel'
p850
I1
sS'!paid'
p851
I4
sS'!conctact'
p852
I1
sS'!tel'
p853
I2
sS'!clown'
p854
I1
sS'!sharingit'
p855
I1
sS'!upto'
p856
I1
sS'!announce'
p857
I1
sS'!apart'
p858
I1
sS'!rose'
p859
I2
sS'!kevin'
p860
I1
sS'!dissin'
p861
I1
sS'!dye'
p862
I2
sS'!likely'
p863
I10
sS'!haramse'
p864
I1
sS'!heal'
p865
I2
sS'!hear'
p866
I118
sS'!heat'
p867
I1
sS'!rss'
p868
I2
sS'!early'
p869
I5
sS'!qualify'
p870
I1
sS'!hilarious'
p871
I1
sS'!spoiled'
p872
I1
sS'!export'
p873
I1
sS'!whoops'
p874
I1
sS'!hardly'
p875
I7
sS'!gimchristine14'
p876
I1
sS'!congrats'
p877
I1
sS'!discuss'
p878
I3
sS'!seetalk'
p879
I1
sS'!abandon'
p880
I2
sS'!mcfly'
p881
I1
sS'!favorite'
p882
I1
sS'!hours'
p883
I1
sS'!dress'
p884
I1
sS'!1st'
p885
I1
sS'!mi'
p886
I2
sS'!spanish'
p887
I1
sS'!mn'
p888
I1
sS'!weekends'
p889
I1
sS'!serviced'
p890
I1
sS'!me'
p891
I222
sS'!my'
p892
I355
sS'!finnish'
p893
I1
sS'!hashtag'
p894
I1
sS'!waiting'
p895
I5
sS'!mr'
p896
I2
sS'!50s'
p897
I1
sS'!delve'
p898
I1
sS'!fabulous'
p899
I2
sS'!earn'
p900
I1
sS'!hey'
p901
I2
sS'!certified'
p902
I1
sS'!kid'
p903
I1
sS'!radio'
p904
I1
sS'!watched'
p905
I5
sS'!her'
p906
I19
sS'!hes'
p907
I6
sS'!patriotic'
p908
I1
sS'!lend'
p909
I2
sS'!tony'
p910
I1
sS'!tennis'
p911
I2
sS'!master'
p912
I3
sS'!tweeeting'
p913
I1
sS'!australian'
p914
I2
sS'!sid'
p915
I1
sS'!remove'
p916
I7
sS'!tomorrow'
p917
I22
sS'!bradies'
p918
I1
sS'!six'
p919
I2
sS'!crucify'
p920
I1
sS'!australias'
p921
I1
sS'!feelling'
p922
I1
sS'!sir'
p923
I1
sS'!sip'
p924
I1
sS'!breakup'
p925
I1
sS'!salty'
p926
I1
sS'!chip'
p927
I1
sS'!5000'
p928
I1
sS'!hurricane'
p929
I1
sS'!studing'
p930
I1
sS'!knowning'
p931
I1
sS'!thinkin'
p932
I2
sS'!awful'
p933
I1
sS'!30ready'
p934
I1
sS'!cash'
p935
I1
sS'!mate'
p936
I1
sS'!important'
p937
I16
sS'!again'
p938
I24
sS'!managed'
p939
I4
sS'!yesterday'
p940
I5
sS'!ask'
p941
I20
sS'!ash'
p942
I1
sS'!omg'
p943
I1
sS'!havent'
p944
I1
sS'!extracting'
p945
I1
sS'!picard'
p946
I1
sS'!recieve'
p947
I5
sS'!bless'
p948
I1
sS'!scrub'
p949
I1
sS'!inviting'
p950
I10
sS'!sleeeppp'
p951
I1
sS'!inclined'
p952
I1
sS'!normally'
p953
I7
sS'!conducive'
p954
I3
sS'!sideswipe'
p955
I1
sS'!especially'
p956
I3
sS'!heartless'
p957
I2
sS'!txt'
p958
I7
sS'!delayed'
p959
I1
sS'!hubby'
p960
I1
sS'!crackberry'
p961
I1
sS'!gotten'
p962
I10
sS'!gettin'
p963
I14
sS'!improve'
p964
I2
sS'!sleepgo'
p965
I1
sS'!ready'
p966
I203
sS'!ominous'
p967
I1
sS'!catch'
p968
I34
sS'!race'
p969
I4
sS'!josh'
p970
I1
sS'!screwing'
p971
I1
sS'!london'
p972
I1
sS'!give'
p973
I84
sS'!dude'
p974
I3
sS'!saving'
p975
I5
sS'!ugly'
p976
I5
sS'!joss'
p977
I1
sS'!importing'
p978
I1
sS'!waite'
p979
I1
sS'!correct'
p980
I4
sS'!loading'
p981
I17
sS'!espn'
p982
I1
sS'!everyone'
p983
I33
sS'!raining'
p984
I46
sS'!waitt'
p985
I5
sS'!heirloom'
p986
I1
sS'!note'
p987
I1
sS'!searchable'
p988
I1
sS'!plurk'
p989
I3
sS'!bebothered'
p990
I1
sS'!conversions'
p991
I1
sS'!watch'
p992
I359
sS'!beleive'
p993
I23
sS'!happycousins'
p994
I1
sS'!sleeping'
p995
I76
sS'!urgh'
p996
I1
sS'!academically'
p997
I1
sS'!delight'
p998
I1
sS'!ms'
p999
I2
sS'!enjoyed'
p1000
I1
sS'!physical'
p1001
I2
sS'!require'
p1002
I2
sS'!accompanying'
p1003
I1
sS'!tattoo'
p1004
I1
sS'!relate'
p1005
I6
sS'!findso'
p1006
I1
sS'!related'
p1007
I3
sS'!required'
p1008
I3
sS'!returned'
p1009
I2
sS'!jealous'
p1010
I15
sS'!mutiply'
p1011
I1
sS'!grow'
p1012
I9
sS'!hheellpp'
p1013
I1
sS'!ornamenty'
p1014
I1
sS'!reformat'
p1015
I2
sS'!fricking'
p1016
I1
sS'!bothering'
p1017
I3
sS'!induced'
p1018
I1
sS'!itunes'
p1019
I1
sS'!quotconnection'
p1020
I1
sS'!pondering'
p1021
I1
sS'!ppl'
p1022
I1
sS'!realize'
p1023
I6
sS'!lmfao'
p1024
I2
sS'!chill'
p1025
I4
sS'!haveits'
p1026
I1
sS'!quot'
p1027
I1
sS'!refreshing'
p1028
I1
sS'!scrubbed'
p1029
I1
sS'!interesting'
p1030
I10
sS'!author'
p1031
I1
sS'!tooo'
p1032
I1
sS'!aight'
p1033
I1
sS'!dougal'
p1034
I1
sS'!dear'
p1035
I3
sS'!takin'
p1036
I3
sS'!danielle'
p1037
I1
sS'!dead'
p1038
I8
sS'!artist'
p1039
I1
sS'!mentholly'
p1040
I1
sS'!exsist'
p1041
I1
sS'!deal'
p1042
I26
sS'!eject'
p1043
I1
sS'!coming'
p1044
I284
sS'!idk'
p1045
I1
sS'!difficul'
p1046
I1
sS'!syracuse'
p1047
I1
sS'!famous'
p1048
I9
sS'!indicate'
p1049
I1
sS'!sample'
p1050
I1
sS'!homework'
p1051
I1
sS'!quotslide'
p1052
I1
sS'!days'
p1053
I5
sS'!scarily'
p1054
I1
sS'!particularly'
p1055
I7
sS'!kim'
p1056
I1
sS'!dothink'
p1057
I1
sS'!messaging'
p1058
I2
sS'!admitting'
p1059
I1
sS'!spiceflow'
p1060
I1
sS'!resist'
p1061
I9
sS'!eviction'
p1062
I1
sS'!crash'
p1063
I1
sS'!overcome'
p1064
I1
sS'!poppin'
p1065
I3
sS'!welsh'
p1066
I3
sS'!celebrating'
p1067
I3
sS'!fault'
p1068
I2
sS'!lake'
p1069
I2
sS'!exactley'
p1070
I1
sS'!rockin'
p1071
I1
sS'!zoom'
p1072
I2
sS'!ahuja'
p1073
I1
sS'!comming'
p1074
I6
sS'!njoy'
p1075
I1
sS'!order'
p1076
I14
sS'!512'
p1077
I1
sS'!entirely'
p1078
I8
sS'!rent'
p1079
I3
sS'!yellow'
p1080
I1
sS'!received'
p1081
I10
sS'!bald'
p1082
I2
sS'!fully'
p1083
I14
sS'!ring'
p1084
I8
sS'!gunna'
p1085
I17
sS'!menopause'
p1086
I1
sS'!le'
p1087
I1
sS'!charleston'
p1088
I1
sS'!la'
p1089
I5
sS'!multimedia'
p1090
I1
sS'!expand'
p1091
I1
sS'!lt'
p1092
I1
sS'!snack'
p1093
I2
sS'!skipping'
p1094
I2
sS'!bre'
p1095
I1
sS'!wrelly'
p1096
I1
sS'!brb'
p1097
I1
sS'!sass'
p1098
I1
sS'!yummy'
p1099
I1
sS'!girly'
p1100
I1
sS'!hungry'
p1101
I26
sS'!rostered'
p1102
I1
sS'!gna'
p1103
I3
sS'!pretendquot'
p1104
I1
sS'!warped'
p1105
I1
sS'!briancampbell'
p1106
I1
sS'!high'
p1107
I8
sS'!underbrella'
p1108
I1
sS'!sprained'
p1109
I1
sS'!hangin'
p1110
I1
sS'!pleaseure'
p1111
I1
sS'!seeen'
p1112
I1
sS'!seeem'
p1113
I1
sS'!acess'
p1114
I1
sS'!seeey'
p1115
I1
sS'!comment'
p1116
I15
sS'!become'
p1117
I5
sS'!legit'
p1118
I5
sS'!spoke'
p1119
I4
sS'!apt'
p1120
I1
sS'!care'
p1121
I22
sS'!like'
p1122
I372
sS'!callin'
p1123
I1
sS'!goign'
p1124
I1
sS'!meatloaf'
p1125
I1
sS'!process'
p1126
I2
sS'!hugs'
p1127
I3
sS'!setting'
p1128
I1
sS'!foundwhat'
p1129
I1
sS'!fulfil'
p1130
I1
sS'!huge'
p1131
I3
sS'!sacrificing'
p1132
I1
sS'!kitty'
p1133
I1
sS'!begin'
p1134
I5
sS'!one'
p1135
I98
sS'!sent'
p1136
I5
sS'!function'
p1137
I16
sS'!send'
p1138
I120
sS'!enable'
p1139
I1
sS'!zac'
p1140
I2
sS'!niceonkeys90'
p1141
I1
sS'!public'
p1142
I1
sS'!9am'
p1143
I2
sS'!regressing'
p1144
I1
sS'!acctually'
p1145
I1
sS'!kangaroo'
p1146
I1
sS'!balanced'
p1147
I1
sS'!incubus'
p1148
I1
sS'!forget'
p1149
I41
sS'!tulsa'
p1150
I1
sS'!psi'
p1151
I1
sS'!famly'
p1152
I1
sS'!board'
p1153
I3
sS'!involve'
p1154
I1
sS'!least'
p1155
I3
sS'!sparodic'
p1156
I1
sS'!stick'
p1157
I10
sS'!treated'
p1158
I1
sS'!study'
p1159
I35
sS'!apologise'
p1160
I1
sS'!sit'
p1161
I21
sS'!freak'
p1162
I2
sS'!tomoro'
p1163
I1
sS'!which'
p1164
I3
sS'!sneaky'
p1165
I1
sS'!fascinating'
p1166
I1
sS'!dogs'
p1167
I2
sS'!zycam'
p1168
I1
sS'!becuase'
p1169
I2
sS'!season'
p1170
I1
sS'!fessin'
p1171
I1
sS'!heck'
p1172
I1
sS'!mature'
p1173
I1
sS'!annoying'
p1174
I3
sS'!scoop'
p1175
I1
sS'!audio'
p1176
I1
sS'!42'
p1177
I1
sS'!traumatized'
p1178
I2
sS'!sync'
p1179
I10
sS'!bein'
p1180
I8
sS'!obama'
p1181
I1
sS'!textedcalled'
p1182
I1
sS'!whatever'
p1183
I1
sS'!shred'
p1184
I1
sS'!digest'
p1185
I1
sS'!thrilled'
p1186
I6
sS'!isnt'
p1187
I1
sS'!advised'
p1188
I2
sS'!browse'
p1189
I4
sS'!teleport'
p1190
I1
sS'!celebrated'
p1191
I1
sS'!patient'
p1192
I1
sS'!heated'
p1193
I1
sS'!risk'
p1194
I3
sS'!tidy'
p1195
I1
sS'!focusing'
p1196
I1
sS'!femes'
p1197
I1
sS'!workinggoing'
p1198
I1
sS'!figure'
p1199
I119
sS'!gunnub'
p1200
I1
sS'!brazil'
p1201
I1
sS'!totaled'
p1202
I1
sS'!pull'
p1203
I13
sS'!belong'
p1204
I3
sS'!sang'
p1205
I1
sS'!state'
p1206
I1
sS'!walking'
p1207
I7
sS'!happenening'
p1208
I1
sS'!either'
p1209
I29
sS'!decided'
p1210
I4
sS'!deposited'
p1211
I1
sS'!retain'
p1212
I1
sS'!installed'
p1213
I4
sS'!spinny'
p1214
I1
sS'!color'
p1215
I1
sS'!se'
p1216
I1
sS'!aligning'
p1217
I1
sS'!translate'
p1218
I4
sS'!so'
p1219
I622
sS'!night'
p1220
I4
sS'!picture'
p1221
I2
sS'!finish'
p1222
I37
sS'!break'
p1223
I10
sS'!jimmy'
p1224
I1
sS'!bullying'
p1225
I1
sS'!swallow'
p1226
I7
sS'!jeopardize'
p1227
I1
sS'!eats'
p1228
I1
sS'!curly'
p1229
I1
sS'!click'
p1230
I13
sS'!idris'
p1231
I1
sS'!fir'
p1232
I1
sS'!passed'
p1233
I2
sS'!fix'
p1234
I33
sS'!ulrich'
p1235
I1
sS'!told'
p1236
I2
sS'!seeing'
p1237
I101
sS'!edward'
p1238
I2
sS'!xbox'
p1239
I2
sS'!flat'
p1240
I1
sS'!sky'
p1241
I2
sS'!impossible'
p1242
I2
sS'!ski'
p1243
I1
sS'!garlic'
p1244
I1
sS'!gaining'
p1245
I1
sS'!attending'
p1246
I10
sS'!meaty'
p1247
I1
sS'!flushing'
p1248
I1
sS'!sorting'
p1249
I1
sS'!online'
p1250
I45
sS'!stuffing'
p1251
I1
sS'!almost'
p1252
I1
sS'!eye'
p1253
I1
sS'!committed'
p1254
I2
sS'!showers'
p1255
I1
sS'!fighting'
p1256
I4
sS'!velive'
p1257
I1
sS'!indonesian'
p1258
I1
sS'!freeezing'
p1259
I1
sS'!provided'
p1260
I2
sS'!slag'
p1261
I1
sS'!resell'
p1262
I1
sS'!chinese'
p1263
I1
sS'!commin'
p1264
I1
sS'!sitting'
p1265
I12
sS'!nyce'
p1266
I1
sS'!late'
p1267
I6
sS'!cumin'
p1268
I5
sS'!sick'
p1269
I33
sS'!susan'
p1270
I2
sS'!commit'
p1271
I4
sS'!realising'
p1272
I1
sS'!artsy'
p1273
I1
sS'!given'
p1274
I3
sS'!suprised'
p1275
I4
sS'!refering'
p1276
I3
sS'!demand'
p1277
I1
sS'!30'
p1278
I1
sS'!pretty'
p1279
I16
sS'!tmrw'
p1280
I1
sS'!drive'
p1281
I63
sS'!making'
p1282
I56
sS'!attach'
p1283
I2
sS'!santa'
p1284
I1
sS'!participate'
p1285
I8
sS'!goodfact'
p1286
I1
sS'!communcate'
p1287
I1
sS'!settle'
p1288
I6
sS'!crunched'
p1289
I1
sS'!quotpresentquot'
p1290
I1
sS'!ctrl'
p1291
I1
sS'!coo'
p1292
I2
sS'!chasing'
p1293
I1
sS'!miff'
p1294
I1
sS'!xbl'
p1295
I1
sS'!coz'
p1296
I10
sS'!reached'
p1297
I3
sS'!cos'
p1298
I10
sS'!willingly'
p1299
I1
sS'!comic'
p1300
I1
sS'!avalbe'
p1301
I1
sS'!goo'
p1302
I2
sS'!gon'
p1303
I6
sS'!extended'
p1304
I1
sS'!god'
p1305
I6
sS'!anything'
p1306
I9
sS'!teaching'
p1307
I1
sS'!gow'
p1308
I1
sS'!gov'
p1309
I1
sS'!recognized'
p1310
I1
sS'!recognize'
p1311
I4
sS'!pigging'
p1312
I1
sS'!nova'
p1313
I1
sS'!satisfying'
p1314
I2
sS'!rectified'
p1315
I1
sS'!gelled'
p1316
I1
sS'!drinking'
p1317
I18
sS'!contact'
p1318
I6
sS'!tied'
p1319
I2
sS'!poisonous'
p1320
I1
sS'!bing'
p1321
I2
sS'!tripn'
p1322
I1
sS'!growing'
p1323
I7
sS'!dealing'
p1324
I3
sS'!ruin'
p1325
I3
sS'!creative'
p1326
I6
sS'!withdraw'
p1327
I1
sS'!ahead'
p1328
I1
sS'!veritas'
p1329
I1
sS'!earbuds'
p1330
I1
sS'!whover'
p1331
I1
sS'!orange'
p1332
I1
sS'!ltbrokengt'
p1333
I1
sS'!same'
p1334
I1
sS'!surprising'
p1335
I6
sS'!jsmy'
p1336
I1
sS'!pro'
p1337
I1
sS'!ebnough'
p1338
I1
sS'!inside'
p1339
I2
sS'!helped'
p1340
I4
sS'!overall'
p1341
I1
sS'!include'
p1342
I12
sS'!feelign'
p1343
I2
sS'!talking'
p1344
I72
sS'!stoned'
p1345
I1
sS'!through'
p1346
I2
sS'!twice'
p1347
I1
sS'!smacked'
p1348
I1
sS'!gone'
p1349
I19
sS'!lean'
p1350
I2
sS'!likinh'
p1351
I1
sS'!that'
p1352
I492
sS'!leak'
p1353
I3
sS'!lead'
p1354
I1
sS'!atampt'
p1355
I1
sS'!leaked'
p1356
I1
sS'!liking'
p1357
I89
sS'!toms'
p1358
I1
sS'!followers'
p1359
I1
sS'!oversleep'
p1360
I1
sS'!cozy'
p1361
I1
sS'!thicker'
p1362
I1
sS'!slp'
p1363
I4
sS'!eachother'
p1364
I1
sS'!moved'
p1365
I1
sS'!adopt'
p1366
I3
sS'!exchange'
p1367
I3
sS'!slh'
p1368
I1
sS'!doin'
p1369
I15
sS'!translating'
p1370
I1
sS'!palm'
p1371
I1
sS'!delete'
p1372
I16
sS'!predict'
p1373
I2
sS'!allwoed'
p1374
I1
sS'!heltart'
p1375
I2
sS'!hamptons'
p1376
I1
sS'!baked'
p1377
I1
sS'!lonely'
p1378
I1
sS'!completed'
p1379
I3
sS'!paying'
p1380
I21
sS'!longi'
p1381
I1
sS'!bend'
p1382
I6
sS'!fallowing'
p1383
I1
sS'!kick'
p1384
I10
sS'!bode'
p1385
I8
sS'!reaching'
p1386
I2
sS'!ditch'
p1387
I1
sS'!confused'
p1388
I1
sS'!with'
p1389
I85
sS'!uncommon'
p1390
I2
sS'!fancy'
p1391
I2
sS'!carrying'
p1392
I3
sS'!gettig'
p1393
I1
sS'!reli'
p1394
I2
sS'!bern'
p1395
I1
sS'!turns'
p1396
I2
sS'!rely'
p1397
I1
sS'!anymoree'
p1398
I1
sS'!think'
p1399
I148
sS'!seriously'
p1400
I4
sS'!obvious'
p1401
I1
sS'!choose'
p1402
I16
sS'!katy'
p1403
I1
sS'!thing'
p1404
I1
sS'!appealing'
p1405
I2
sS'!repair'
p1406
I4
sS'!worked'
p1407
I11
sS'!balling'
p1408
I1
sS'!rily'
p1409
I1
sS'!figured'
p1410
I1
sS'!rl'
p1411
I1
sS'!never'
p1412
I4
sS'!breff'
p1413
I1
sS'!dunedin'
p1414
I1
sS'!deserve'
p1415
I7
sS'!strapping'
p1416
I1
sS'!goodstudy'
p1417
I1
sS'!possiblequot'
p1418
I1
sS'!ltlgt'
p1419
I1
sS'!falling'
p1420
I5
sS'!dancin'
p1421
I1
sS'!tgif'
p1422
I2
sS'!ampamp'
p1423
I1
sS'!saved'
p1424
I2
sS'!aluminum'
p1425
I1
sS'!potatoo'
p1426
I1
sS'!accessible'
p1427
I6
sS'!annoyed'
p1428
I2
sS'!wifey'
p1429
I1
sS'!tube'
p1430
I1
sS'!interested'
p1431
I21
sS'!transform'
p1432
I2
sS'!rememba'
p1433
I2
sS'!hands'
p1434
I1
sS'!ohh'
p1435
I1
sS'!complicated'
p1436
I1
sS'!mean'
p1437
I22
sS'!belligerent'
p1438
I1
sS'!meat'
p1439
I1
sS'!quotall'
p1440
I1
sS'!onlineamp'
p1441
I1
sS'!yay'
p1442
I8
sS'!rebooting'
p1443
I1
sS'!taunting'
p1444
I1
sS'!been2crosswrdbt'
p1445
I1
sS'!sez'
p1446
I2
sS'!ccoughing'
p1447
I1
sS'!strt'
p1448
I1
sS'!goanna'
p1449
I1
sS'!recovering'
p1450
I1
sS'!sell'
p1451
I24
sS'!put'
p1452
I73
sS'!pc'
p1453
I3
sS'!respond'
p1454
I32
sS'!self'
p1455
I4
sS'!blab'
p1456
I1
sS'!understaffed'
p1457
I1
sS'!herself'
p1458
I2
sS'!growl'
p1459
I1
sS'!bought'
p1460
I2
sS'!usable'
p1461
I2
sS'!bitterquot'
p1462
I1
sS'!consider'
p1463
I4
sS'!shatner'
p1464
I1
sS'!purchase'
p1465
I4
sS'!useful'
p1466
I2
sS'!quotshut'
p1467
I1
sS'!added'
p1468
I2
sS'!beilieve'
p1469
I1
sS'!sleep'
p1470
I1746
sS'!bluefur'
p1471
I1
sS'!design'
p1472
I1
sS'!surprised'
p1473
I23
sS'!lookin'
p1474
I37
sS'!other'
p1475
I3
sS'!mosley'
p1476
I1
sS'!teman'
p1477
I1
sS'!offer'
p1478
I8
sS'!mackeric'
p1479
I1
sS'!distract'
p1480
I1
sS'!tweeted'
p1481
I10
sS'!tan'
p1482
I7
sS'!older'
p1483
I1
sS'!schools'
p1484
I1
sS'!authorise'
p1485
I1
sS'!travelling'
p1486
I1
sS'!amish'
p1487
I1
sS'!tights'
p1488
I1
sS'!tweeter'
p1489
I1
sS'!ice'
p1490
I2
sS'!date'
p1491
I3
sS'!tat'
p1492
I1
sS'!toggle'
p1493
I1
sS'!hook'
p1494
I3
sS'!voting'
p1495
I1
sS'!der'
p1496
I1
sS'!leavex'
p1497
I1
sS'!reacting'
p1498
I1
sS'!ognna'
p1499
I1
sS'!realyl'
p1500
I2
sS'!del'
p1501
I1
sS'!dem'
p1502
I1
sS'!blinking'
p1503
I1
sS'!dragging'
p1504
I2
sS'!kings'
p1505
I1
sS'!squidward'
p1506
I1
sS'!rung'
p1507
I1
sS'!hangout'
p1508
I2
sS'!flake'
p1509
I2
sS'!classmates'
p1510
I4
sS'!rangers'
p1511
I1
sS'!independently'
p1512
I1
sS'!salt'
p1513
I1
sS'!start'
p1514
I49
sS'!both'
p1515
I5
sS'!follwing'
p1516
I1
sS'!delusional'
p1517
I1
sS'!funnyit'
p1518
I1
sS'!giving'
p1519
I25
sS'!summer'
p1520
I7
sS'!luv'
p1521
I1
sS'!member'
p1522
I1
sS'!lus'
p1523
I1
sS'!wut'
p1524
I1
sS'!mines'
p1525
I2
sS'!watchin'
p1526
I7
sS'!reload'
p1527
I1
sS'!snes'
p1528
I1
sS'!qo'
p1529
I1
sS'!reading'
p1530
I11
sS'!hit'
p1531
I15
sS'!hip'
p1532
I3
sS'!his'
p1533
I17
sS'!rainig'
p1534
I1
sS'!him'
p1535
I15
sS'!clothes'
p1536
I1
sS'!condoning'
p1537
I1
sS'!waiit'
p1538
I1
sS'!picky'
p1539
I1
sS'!budging'
p1540
I2
sS'!bruce'
p1541
I1
sS'!swimming'
p1542
I2
sS'!awake'
p1543
I19
sS'!hahha'
p1544
I1
sS'!kno'
p1545
I2
sS'!spesh'
p1546
I1
sS'!sms'
p1547
I1
sS'!racing'
p1548
I2
sS'!final'
p1549
I3
sS'!reactivate'
p1550
I1
sS'!later'
p1551
I2
sS'!tireddd'
p1552
I1
sS'!move'
p1553
I104
sS'!lift'
p1554
I5
sS'!miami'
p1555
I1
sS'!telling'
p1556
I17
sS'!catalina'
p1557
I1
sS'!slide'
p1558
I2
sS'!appriciate'
p1559
I1
sS'!life'
p1560
I4
sS'!delivered'
p1561
I3
sS'!arrive'
p1562
I9
sS'!idea'
p1563
I1
sS'!sulking'
p1564
I1
sS'!bake'
p1565
I1
sS'!wish'
p1566
I14
sS'!beyyy'
p1567
I1
sS'!weekns'
p1568
I1
sS'!wrap'
p1569
I2
sS'!sian'
p1570
I1
sS'!revolve'
p1571
I1
sS'!decreasing'
p1572
I1
sS'!involving'
p1573
I1
sS'!flight'
p1574
I1
sS'!lady'
p1575
I2
sS'!reme'
p1576
I1
sS'!queue'
p1577
I2
sS'!best'
p1578
I7
sS'!procrastinating'
p1579
I1
sS'!evict'
p1580
I1
sS'!vaccinated'
p1581
I1
sS'!simply'
p1582
I1
sS'!backstage'
p1583
I2
sS'!class'
p1584
I1
sS'!guna'
p1585
I5
sS'!preaching'
p1586
I1
sS'!brazilian'
p1587
I1
sS'!grateful'
p1588
I1
sS'!recently'
p1589
I6
sS'!enforce'
p1590
I1
sS'!myself'
p1591
I3
sS'!guns'
p1592
I1
sS'!strict'
p1593
I1
sS'!girl'
p1594
I1
sS'!pissed'
p1595
I3
sS'!fairquot'
p1596
I1
sS'!noticing'
p1597
I5
sS'!update'
p1598
I55
sS'!black'
p1599
I6
sS'!git'
p1600
I1
sS'!quotmaskquot'
p1601
I1
sS'!fundays'
p1602
I1
sS'!typing'
p1603
I1
sS'!bungy'
p1604
I1
sS'!standing'
p1605
I7
sS'!pinning'
p1606
I1
sS'!japanese'
p1607
I1
sS'!splashingaround'
p1608
I1
sS'!answer'
p1609
I62
sS'!diet'
p1610
I1
sS'!sadly'
p1611
I3
sS'!complain'
p1612
I18
sS'!died'
p1613
I2
sS'!fixed'
p1614
I18
sS'!vegetarian'
p1615
I2
sS'!pack'
p1616
I1
sS'!visit'
p1617
I13
sS'!bill'
p1618
I2
sS'!beilve'
p1619
I1
sS'!highfive'
p1620
I1
sS'!mimic'
p1621
I1
sS'!zfs'
p1622
I1
sS'!enjoyin'
p1623
I2
sS'!loose'
p1624
I2
sS'!shop'
p1625
I3
sS'!knoe'
p1626
I1
sS'!ahhh'
p1627
I1
sS'!secretly'
p1628
I1
sS'!particually'
p1629
I1
sS'!meeting'
p1630
I5
sS'!know'
p1631
I156
sS'!jbs'
p1632
I1
sS'!frequent'
p1633
I1
sS'!gana'
p1634
I1
sS'!dugong'
p1635
I1
sS'!revise'
p1636
I8
sS'!comply'
p1637
I1
sS'!thatx'
p1638
I1
sS'!just'
p1639
I186
sS'!chriss'
p1640
I1
sS'!white1'
p1641
I1
sS'!lt3'
p1642
I1
sS'!tether'
p1643
I2
sS'!overuse'
p1644
I1
sS'!supouse'
p1645
I1
sS'!gun'
p1646
I1
sS'!confirmed'
p1647
I4
sS'!serving'
p1648
I2
sS'!political'
p1649
I2
sS'!stop'
p1650
I394
sS'!doable'
p1651
I2
sS'!needed'
p1652
I7
sS'!rid'
p1653
I1
sS'!deep'
p1654
I4
sS'!betterdoc'
p1655
I1
sS'!performng'
p1656
I1
sS'!hipster'
p1657
I1
sS'!hearts'
p1658
I1
sS'!oreo'
p1659
I1
sS'!joking'
p1660
I7
sS'!depend'
p1661
I2
sS'!refund'
p1662
I2
sS'!regress'
p1663
I1
sS'!comoing'
p1664
I1
sS'!conjugated'
p1665
I1
sS'!dearest'
p1666
I1
sS'!ging'
p1667
I1
sS'!activate'
p1668
I8
sS'!workingamp'
p1669
I1
sS'!walterboro'
p1670
I1
sS'!aloud'
p1671
I16
sS'!coop'
p1672
I1
sS'!ddo'
p1673
I1
sS'!arent'
p1674
I1
sS'!subpenaed'
p1675
I1
sS'!hyper'
p1676
I2
sS'!ditchin'
p1677
I1
sS'!venezuela'
p1678
I1
sS'!sunday'
p1679
I4
sS'!configure'
p1680
I3
sS'!blaming'
p1681
I2
sS'!swirl'
p1682
I1
sS'!specified'
p1683
I1
sS'!organized'
p1684
I2
sS'!alotta'
p1685
I1
sS'!toquot'
p1686
I1
sS'!pr'
p1687
I1
sS'!ps'
p1688
I1
sS'!rush'
p1689
I2
sS'!husam'
p1690
I1
sS'!pk'
p1691
I1
sS'!lmao'
p1692
I2
sS'!winning'
p1693
I9
sS'!pm'
p1694
I4
sS'!mp4'
p1695
I1
sS'!superfireradioactive'
p1696
I1
sS'!follw'
p1697
I1
sS'!wants'
p1698
I1
sS'!specify'
p1699
I1
sS'!sucking'
p1700
I2
sS'!ghosts'
p1701
I1
sS'!friended'
p1702
I1
sS'!spot'
p1703
I1
sS'!miserably'
p1704
I1
sS'!celebs'
p1705
I1
sS'!nowzb'
p1706
I1
sS'!technically'
p1707
I3
sS'!sleepies'
p1708
I1
sS'!bon'
p1709
I1
sS'!miserable'
p1710
I1
sS'!power'
p1711
I1
sS'!iono'
p1712
I1
sS'!blore'
p1713
I1
sS'!satans'
p1714
I1
sS'!silverstone'
p1715
I1
sS'!existent'
p1716
I1
sS'!salsa'
p1717
I1
sS'!absolutley'
p1718
I1
sS'!plane'
p1719
I1
sS'!bow'
p1720
I1
sS'!mentioned'
p1721
I2
sS'!2day'
p1722
I3
sS'!renew'
p1723
I4
sS'!boy'
p1724
I1
sS'!enuff'
p1725
I6
sS'!webcamcos'
p1726
I1
sS'!quotworngquot'
p1727
I1
sS'!cave'
p1728
I1
sS'!dailybooth'
p1729
I1
sS'!justifiable'
p1730
I1
sS'!taub'
p1731
I1
sS'!srq'
p1732
I1
sS'!sneeze'
p1733
I1
sS'!sry'
p1734
I1
sS'!pwn'
p1735
I1
sS'!jak'
p1736
I1
sS'!twitch'
p1737
I1
sS'!repairable'
p1738
I1
sS'!remember'
p1739
I199
sS'!fiscally'
p1740
I1
sS'!invert'
p1741
I1
sS'!daddy'
p1742
I2
sS'!game'
p1743
I1
sS'!staff'
p1744
I1
sS'!aroundd'
p1745
I1
sS'!belvie'
p1746
I1
sS'!excist'
p1747
I1
sS'!domuch'
p1748
I1
sS'!stable'
p1749
I2
sS'!rescheduled'
p1750
I1
sS'!diggin'
p1751
I2
sS'!thank'
p1752
I3
sS'!retweet'
p1753
I3
sS'!fail'
p1754
I10
sS'!convict'
p1755
I1
sS'!57'
p1756
I1
sS'!custard'
p1757
I1
sS'!addressed'
p1758
I1
sS'!loev'
p1759
I1
sS'!fair'
p1760
I465
sS'!textcall'
p1761
I1
sS'!via'
p1762
I5
sS'!acdc'
p1763
I1
sS'!trying'
p1764
I34
sS'!dystopian'
p1765
I1
sS'!icant'
p1766
I1
sS'!john'
p1767
I1
sS'!photograph'
p1768
I1
sS'!offend'
p1769
I1
sS'!printable'
p1770
I1
sS'!wot'
p1771
I1
sS'!wor'
p1772
I1
sS'!seeumbrella'
p1773
I1
sS'!won'
p1774
I5
sS'!ian'
p1775
I1
sS'!nun'
p1776
I1
sS'!cooperating'
p1777
I13
sS'!receiving'
p1778
I1
sS'!85'
p1779
I1
sS'!bit'
p1780
I1
sS'!ever'
p1781
I56
sS'!healing'
p1782
I1
sS'!nachos'
p1783
I1
sS'!even'
p1784
I1508
sS'!alota'
p1785
I1
sS'!rub'
p1786
I3
sS'!home'
p1787
I89
sS'!affects'
p1788
I1
sS'!run'
p1789
I60
sS'!nofee'
p1790
I1
sS'!about'
p1791
I26
sS'!investigate'
p1792
I1
sS'!reply'
p1793
I90
sS'!worried'
p1794
I6
sS'!magic'
p1795
I1
sS'!effective'
p1796
I1
sS'!spelling'
p1797
I1
sS'!cry'
p1798
I15
sS'!vlog'
p1799
I1
sS'!suffer'
p1800
I7
sS'!starving'
p1801
I1
sS'!feelng'
p1802
I1
sS'!lwt'
p1803
I1
sS'!lowbloodsugar'
p1804
I1
sS'!mirrored'
p1805
I1
sS'!disappointed'
p1806
I3
sS'!wt'
p1807
I1
sS'!also'
p1808
I1
sS'!enough'
p1809
I231
sS'!wo'
p1810
I1
sS'!but'
p1811
I88
sS'!answerin'
p1812
I3
sS'!bus'
p1813
I1
sS'!complete'
p1814
I17
sS'!we'
p1815
I70
sS'!wb'
p1816
I2
sS'!owning'
p1817
I1
sS'!buy'
p1818
I106
sS'!espotting'
p1819
I1
sS'!gnna'
p1820
I1
sS'!readily'
p1821
I1
sS'!exams'
p1822
I1
sS'!quotmaweequot'
p1823
I2
sS'!kaytie'
p1824
I1
sS'!tellin'
p1825
I1
sS'!unusual'
p1826
I1
sS'!fruit'
p1827
I1
sS'!bootable'
p1828
I1
sS'!lived'
p1829
I1
sS'!w8'
p1830
I9
sS'!flex'
p1831
I1
sS'!track'
p1832
I3
sS'!oversleeping'
p1833
I1
sS'!recovered'
p1834
I2
sS'!reside'
p1835
I1
sS'!talented'
p1836
I2
sS'!sow'
p1837
I1
sS'!adapted'
p1838
I1
sS'!clip'
p1839
I1
sS'!soo'
p1840
I4
sS'!sod'
p1841
I1
sS'!sog'
p1842
I1
sS'!jesus'
p1843
I1
sS'!hobing'
p1844
I1
sS'!purple'
p1845
I1
sS'!bdeshs'
p1846
I1
sS'!known'
p1847
I2
sS'!leting'
p1848
I2
sS'!comeee'
p1849
I1
sS'!holly'
p1850
I1
sS'!checking'
p1851
I5
sS'!shaved'
p1852
I1
sS'!sigh'
p1853
I2
sS'!sign'
p1854
I28
sS'!link'
p1855
I8
sS'!httptinyurlcomqpa58z'
p1856
I1
sS'!quothequot'
p1857
I1
sS'!decide'
p1858
I95
sS'!bail'
p1859
I2
sS'!hoppy'
p1860
I1
sS'!hack'
p1861
I5
sS'!ok\xc3\xa2\xe2\x82\xac\xc2\xa6'
p1862
I1
sS'!reccomend'
p1863
I1
sS'!found'
p1864
I81
sS'!catholic'
p1865
I1
sS'!americas'
p1866
I1
sS'!banished'
p1867
I1
sS'!creating'
p1868
I1
sS'!rest'
p1869
I6
sS'!finnised'
p1870
I1
sS'!result'
p1871
I1
sS'!registering'
p1872
I1
sS'!\xc3\xaf\xc2\xbf\xc2\xbd8'
p1873
I1
sS'!hospitalfriendly'
p1874
I1
sS'!remodeling'
p1875
I1
sS'!findafford'
p1876
I1
sS'!knocking'
p1877
I1
sS'!embracing'
p1878
I1
sS'!csusb'
p1879
I1
sS'!blocking'
p1880
I1
sS'!ending'
p1881
I4
sS'!productive'
p1882
I3
sS'!wrk'
p1883
I1
sS'!flirting'
p1884
I2
sS'!freeze'
p1885
I2
sS'!perfected'
p1886
I1
sS'!could'
p1887
I1
sS'!italian'
p1888
I1
sS'!reassemble'
p1889
I1
sS'!mount'
p1890
I2
sS'!everybody'
p1891
I3
sS'!inspiring'
p1892
I1
sS'!harmed'
p1893
I1
sS'!readyim'
p1894
I1
sS'!showering'
p1895
I3
sS'!trashy'
p1896
I1
sS'!twitter'
p1897
I27
sS'!vip'
p1898
I1
sS'!touched'
p1899
I1
sS'!geht'
p1900
I1
sS'!yeah'
p1901
I3
sS'!twitted'
p1902
I1
sS'!blame'
p1903
I15
sS'!displayed'
p1904
I1
sS'!capture'
p1905
I1
sS'!pimp'
p1906
I1
sS'!booting'
p1907
I1
sS'!everything'
p1908
I11
sS'!appropriate'
p1909
I3
sS'!funn'
p1910
I1
sS'!memorial'
p1911
I1
sS'!andrew'
p1912
I1
sS'!braggin'
p1913
I1
sS'!followin'
p1914
I17
sS'!worthy'
p1915
I11
sS'!cauz'
p1916
I1
sS'!physics'
p1917
I1
sS'!cakes'
p1918
I1
sS'!rumblin'
p1919
I1
sS'!abroad'
p1920
I1
sS'!karens'
p1921
I1
sS'!courts'
p1922
I1
sS'!exciting'
p1923
I14
sS'!walkin'
p1924
I2
sS'!went'
p1925
I1
sS'!recognised'
p1926
I1
sS'!helpin'
p1927
I1
sS'!stopping'
p1928
I5
sS'!hcinema'
p1929
I1
sS'!grab'
p1930
I1
sS'!220'
p1931
I1
sS'!flexable'
p1932
I1
sS'!support'
p1933
I21
sS'!appreciative'
p1934
I1
sS'!staring'
p1935
I1
sS'!scare'
p1936
I2
sS'!ripping'
p1937
I2
sS'!returning'
p1938
I7
sS'!scary'
p1939
I6
sS'!2late'
p1940
I1
sS'!teens'
p1941
I1
sS'!chiarelli'
p1942
I1
sS'!dissapointed'
p1943
I1
sS'!20th'
p1944
I1
sS'!voice'
p1945
I2
sS'!llike'
p1946
I1
sS'!forever'
p1947
I4
sS'!beating'
p1948
I1
sS'!woo'
p1949
I2
sS'!missing'
p1950
I29
sS'!leave'
p1951
I133
sS'!wroked'
p1952
I1
sS'!qing'
p1953
I1
sS'!quotidenticalquot'
p1954
I1
sS'!doen'
p1955
I1
sS'!partyin'
p1956
I1
sS'!serve'
p1957
I4
sS'!realtime'
p1958
I1
sS'!churn'
p1959
I1
sS'!stir'
p1960
I1
sS'!resident'
p1961
I1
sS'!dawn'
p1962
I1
sS'!2moro'
p1963
I1
sS'!psychotic'
p1964
I2
sS'!pronounce'
p1965
I2
sS'!picking'
p1966
I6
sS'!beliave'
p1967
I1
sS'!why'
p1968
I17
sS'!shleep'
p1969
I1
sS'!barefeets'
p1970
I1
sS'!talked'
p1971
I3
sS'!eligable'
p1972
I2
sS'!herethe'
p1973
I1
sS'!who'
p1974
I7
sS'!waiter'
p1975
I1
sS'!restore'
p1976
I3
sS'!sanctioning'
p1977
I1
sS'!repeat'
p1978
I3
sS'!scavenger'
p1979
I1
sS'!enuf'
p1980
I2
sS'!amiable'
p1981
I1
sS'!inspiration'
p1982
I1
sS'!damnit'
p1983
I1
sS'!refill'
p1984
I1
sS'!compatible'
p1985
I15
sS'!landlocked'
p1986
I1
sS'!v1'
p1987
I1
sS'!ticket'
p1988
I1
sS'!healthy'
p1989
I12
sS'!comning'
p1990
I1
sS'!learnt'
p1991
I2
sS'!simpike'
p1992
I1
sS'!larger'
p1993
I1
sS'!sustain'
p1994
I1
sS'!nightmares'
p1995
I1
sS'!relax'
p1996
I5
sS'!freelons'
p1997
I1
sS'!different'
p1998
I1
sS'!back'
p1999
I37
sS'!somewhere'
p2000
I1
sS'!arrest'
p2001
I1
sS'!lavels'
p2002
I1
sS'!posted'
p2003
I1
sS'!nearly'
p2004
I21
sS'!chess'
p2005
I1
sS'!chest'
p2006
I1
sS'!stomachache'
p2007
I1
sS'!meh'
p2008
I1
sS'!inpsire'
p2009
I1
sS'!hazelluve'
p2010
I1
sS'!touching'
p2011
I3
sS'!point'
p2012
I1
sS'!root'
p2013
I1
sS'!twilight'
p2014
I2
sS'!foundquot'
p2015
I5
sS'!readyshell'
p2016
I1
sS'!nitro'
p2017
I1
sS'!essaynumbersgame'
p2018
I1
sS'!unsubscribe'
p2019
I1
sS'!wheres'
p2020
I1
sS'!closet'
p2021
I1
sS'!st8'
p2022
I1
sS'!pink'
p2023
I1
sS'!would'
p2024
I4
sS'!workingg'
p2025
I1
sS'!supposed'
p2026
I39
sS'!most'
p2027
I2
sS'!lately'
p2028
I2
sS'!knitting'
p2029
I2
sS'!aware'
p2030
I8
sS'!mothers'
p2031
I1
sS'!dying'
p2032
I3
sS'!goiing'
p2033
I1
sS'!firewall'
p2034
I1
sS'!behind'
p2035
I1
sS'!innuendo'
p2036
I1
sS'!double'
p2037
I1
sS'!succesfully'
p2038
I2
sS'!bloggable'
p2039
I1
sS'!aquaintances'
p2040
I1
sS'!interrupt'
p2041
I1
sS'!pig'
p2042
I2
sS'!pic'
p2043
I1
sS'!breath'
p2044
I25
sS'!street'
p2045
I1
sS'!weird'
p2046
I3
sS'!tonite'
p2047
I5
sS'!driven'
p2048
I1
sS'!blind'
p2049
I1
sS'!smeeping'
p2050
I1
sS'!forgot'
p2051
I1
sS'!faulty'
p2052
I2
sS'!bflo'
p2053
I1
sS'!httpffim2l5u8'
p2054
I1
sS'!scroll'
p2055
I5
sS'!disturb'
p2056
I2
sS'!nahhh'
p2057
I1
sS'!catching'
p2058
I2
sS'!lock'
p2059
I2
sS'!loyality'
p2060
I1
sS'!produce'
p2061
I1
sS'!bull'
p2062
I1
sS'!terrble'
p2063
I1
sS'!bugger'
p2064
I1
sS'!change'
p2065
I90
sS'!happened'
p2066
I2
sS'!wit'
p2067
I5
sS'!paan'
p2068
I1
sS'!win'
p2069
I91
sS'!tweetie'
p2070
I1
sS'!dependent'
p2071
I2
sS'!seing'
p2072
I1
sS'!sparkly'
p2073
I1
sS'!day'
p2074
I1
sS'!crying'
p2075
I5
sS'!earth'
p2076
I1
sS'!feeing'
p2077
I1
sS'!launch'
p2078
I4
sS'!envy'
p2079
I1
sS'!restaurant'
p2080
I1
sS'!inderstand'
p2081
I1
sS'!lay'
p2082
I9
sS'!burying'
p2083
I1
sS'!mullerice'
p2084
I1
sS'!leaving'
p2085
I21
sS'!unsub'
p2086
I1
sS'!desple'
p2087
I1
sS'!2am'
p2088
I1
sS'!manageable'
p2089
I1
sS'!pixel'
p2090
I1
sS'!loopy'
p2091
I1
sS'!bike'
p2092
I5
sS'!sporty'
p2093
I1
sS'!insured'
p2094
I1
sS'!away'
p2095
I2
sS'!summit'
p2096
I1
sS'!suppose'
p2097
I4
sS'!sports'
p2098
I1
sS'!faking'
p2099
I1
sS'!awfully'
p2100
I1
sS'!hmm'
p2101
I3
sS'!suffering'
p2102
I5
sS'!pumped'
p2103
I1
sS'!lying'
p2104
I5
sS'!bspears'
p2105
I1
sS'!thick'
p2106
I2
sS'!squish'
p2107
I1
sS'!hiking'
p2108
I1
sS'!coin'
p2109
I1
sS'!nufin'
p2110
I1
sS'!saty'
p2111
I1
sS'!stalking'
p2112
I2
sS'!sata'
p2113
I1
sS'!certain'
p2114
I4
sS'!single'
p2115
I4
sS'!sowy'
p2116
I1
sS'!bum'
p2117
I1
sS'!lesbian'
p2118
I1
sS'!backing'
p2119
I2
sS'!left'
p2120
I5
sS'!informed'
p2121
I4
sS'!rllysry'
p2122
I1
sS'!resolve'
p2123
I1
sS'!climb'
p2124
I1
sS'!smilei'
p2125
I1
sS'!save'
p2126
I24
sS'!cigs'
p2127
I1
sS'!tlkin'
p2128
I2
sS'!comfortable'
p2129
I4
sS'!speakn'
p2130
I1
sS'!relevant'
p2131
I2
sS'!belive'
p2132
I61
sS'!lovers'
p2133
I1
sS'!trendy'
p2134
I1
sS'!jeska'
p2135
I1
sS'!devil'
p2136
I2
sS'!mccarver'
p2137
I1
sS'!come'
p2138
I400
sS'!valid'
p2139
I2
sS'!our'
p2140
I27
sS'!geting'
p2141
I1
sS'!itsyoalex'
p2142
I1
sS'!very'
p2143
I269
sS'!selecting'
p2144
I1
sS'!doing'
p2145
I208
sS'!treat'
p2146
I1
sS'!doind'
p2147
I1
sS'!captured'
p2148
I1
sS'!san'
p2149
I2
sS'!sadjus'
p2150
I1
sS'!retrace'
p2151
I1
sS'!clicking'
p2152
I4
sS'!sum'
p2153
I1
sS'!icky'
p2154
I1
sS'!sub'
p2155
I1
sS'!money'
p2156
I2
sS'!wa'
p2157
I2
sS'!muted'
p2158
I1
sS'!sur'
p2159
I2
sS'!sched'
p2160
I1
sS'!espn360'
p2161
I1
sS'!gavin'
p2162
I1
sS'!beibg'
p2163
I1
sS'!twit'
p2164
I2
sS'!boring'
p2165
I8
sS'!superstitious'
p2166
I1
sS'!twin'
p2167
I1
sS'!stunting'
p2168
I1
sS'!boat'
p2169
I1
sS'!msn'
p2170
I2
sS'!uc'
p2171
I1
sS'!cooked'
p2172
I1
sS'!msg'
p2173
I1
sS'!uh'
p2174
I2
sS'!uk'
p2175
I1
sS'!booking'
p2176
I1
sS'!un'
p2177
I1
sS'!up'
p2178
I87
sS'!us'
p2179
I15
sS'!ur'
p2180
I24
sS'!neither'
p2181
I1
sS'!charge'
p2182
I20
sS'!storage'
p2183
I1
sS'!skinny'
p2184
I4
sS'!father'
p2185
I2
sS'!disconnect'
p2186
I1
sS'!fall'
p2187
I176
sS'!mommy'
p2188
I1
sS'!supply'
p2189
I2
sS'!count'
p2190
I12
sS'!cuz'
p2191
I27
sS'!lbinopenguin'
p2192
I1
sS'!protect'
p2193
I2
sS'!cus'
p2194
I2
sS'!aired'
p2195
I1
sS'!cupcakes'
p2196
I1
sS'!cut'
p2197
I9
sS'!showeed'
p2198
I1
sS'!passionately'
p2199
I1
sS'!cud'
p2200
I1
sS'!get'
p2201
I2050
sS'!compete'
p2202
I7
sS'!gen'
p2203
I1
sS'!twittercool'
p2204
I1
sS'!married'
p2205
I6
sS'!attached'
p2206
I1
sS'!unlock'
p2207
I5
sS'!computing'
p2208
I1
sS'!chad'
p2209
I1
sS'!going'
p2210
I1131
sS'!full'
p2211
I8
sS'!breathe'
p2212
I81
sS'!strong'
p2213
I6
sS'!chat'
p2214
I16
sS'!knowing'
p2215
I48
sS'!those'
p2216
I2
sS'!texting'
p2217
I14
sS'!caling'
p2218
I1
sS'!reserved'
p2219
I1
sS'!puke'
p2220
I1
sS'!disappearing'
p2221
I1
sS'!consolidate'
p2222
I1
sS'!dial'
p2223
I1
sS'!actually'
p2224
I48
sS'!well'
p2225
I114
sS'!above'
p2226
I1
sS'!gettn'
p2227
I1
sS'!omaha'
p2228
I1
sS'!create'
p2229
I4
sS'!keep'
p2230
I113
sS'!usually'
p2231
I10
sS'!mono'
p2232
I1
sS'!buttcake'
p2233
I1
sS'!tell'
p2234
I133
sS'!replying'
p2235
I30
sS'!spoiling'
p2236
I1
sS'!compute'
p2237
I1
sS'!keen'
p2238
I14
sS'!fucked'
p2239
I2
sS'!everygirl'
p2240
I1
sS'!attacking'
p2241
I1
sS'!tall'
p2242
I2
sS'!iron'
p2243
I1
sS'!treadmill'
p2244
I1
sS'!talk'
p2245
I147
sS'!damnnnit'
p2246
I1
sS'!parents'
p2247
I1
sS'!quinto'
p2248
I1
sS'!taught'
p2249
I1
sS'!gloat'
p2250
I1
sS'!convincing'
p2251
I1
sS'!wills'
p2252
I1
sS'!copy'
p2253
I4
sS'!eaten'
p2254
I11
sS'!16'
p2255
I1
sS'!cope'
p2256
I11
sS'!their'
p2257
I11
sS'!10'
p2258
I2
sS'!abide'
p2259
I1
sS'!format'
p2260
I1
sS'!imagining'
p2261
I2
sS'!tweet'
p2262
I70
sS'!streamed'
p2263
I2
sS'!12'
p2264
I2
sS'!billy'
p2265
I1
sS'!butt'
p2266
I1
sS'!flooding'
p2267
I1
sS'!impaire'
p2268
I1
sS'!bills'
p2269
I1
sS'!disappoint'
p2270
I3
sS'!unlockable'
p2271
I1
sS'!stupid'
p2272
I14
sS'!affrod'
p2273
I1
sS'!handling'
p2274
I3
sS'!emma'
p2275
I1
sS'!access'
p2276
I63
sS'!survived'
p2277
I1
sS'!confuse'
p2278
I1
sS'!editable'
p2279
I1
sS'!judge'
p2280
I1
sS'!sexist'
p2281
I1
sS'!titip'
p2282
I1
sS'!invinsible'
p2283
I1
sS'!education'
p2284
I1
sS'!convert'
p2285
I2
sS'!clik'
p2286
I1
sS'!sucks'
p2287
I1
sS'!cheap'
p2288
I8
sS'!socal'
p2289
I1
sS'!pathetic'
p2290
I2
sS'!within'
p2291
I3
sS'!bats'
p2292
I1
sS'!publishing'
p2293
I1
sS'!interfere'
p2294
I1
sS'!flamin'
p2295
I1
sS'!includin'
p2296
I1
sS'!wine'
p2297
I1
sS'!internationally'
p2298
I1
sS'!expect'
p2299
I6
sS'!declaring'
p2300
I1
sS'!bath'
p2301
I1
sS'!offered'
p2302
I1
sS'!te'
p2303
I1
sS'!regret'
p2304
I9
sS'!ta'
p2305
I1
sS'!to'
p2306
I743
sS'!tk'
p2307
I1
sS'!th'
p2308
I1
sS'!impinge'
p2309
I1
sS'!proper'
p2310
I3
sS'!apples'
p2311
I2
sS'!beta'
p2312
I1
sS'!locate'
p2313
I5
sS'!batman'
p2314
I1
sS'!tx'
p2315
I1
sS'!excited'
p2316
I53
sS'!userfriendly'
p2317
I1
sS'!over'
p2318
I48
sS'!competing'
p2319
I3
sS'!suposed'
p2320
I1
sS'!flinch'
p2321
I1
sS'!conecte'
p2322
I1
sS'!enter'
p2323
I17
sS'!shower'
p2324
I2
sS'!tree'
p2325
I1
sS'!kosher'
p2326
I1
sS'!swap'
p2327
I1
sS'!blinding'
p2328
I1
sS'!t4'
p2329
I1
sS'!mp3'
p2330
I1
sS'!swag'
p2331
I1
sS'!washing'
p2332
I1
sS'!lettin'
p2333
I7
sS'!refresh'
p2334
I2
sS'!05k'
p2335
I1
sS'!indepth'
p2336
I1
sS'!todaybut'
p2337
I1
sS'!antihistamines'
p2338
I1
sS'!mellow'
p2339
I1
sS'!meetnn'
p2340
I1
sS'!bris'
p2341
I1
sS'!occupy'
p2342
I1
sS'!smiling'
p2343
I3
sS'!often'
p2344
I7
sS'!first'
p2345
I4
sS'!vgood'
p2346
I1
sS'!charged'
p2347
I1
sS'!training'
p2348
I1
sS'!fight'
p2349
I8
sS'!contaminated'
p2350
I1
sS'!legal'
p2351
I3
sS'!cold'
p2352
I7
sS'!arrived'
p2353
I10
sS'!cola'
p2354
I1
sS'!operator'
p2355
I1
sS'!urmas'
p2356
I1
sS'!sympathize'
p2357
I1
sS'!taboggan'
p2358
I1
sS'!engaged'
p2359
I1
sS'!downloading'
p2360
I4
sS'!atay'
p2361
I1
sS'!needing'
p2362
I3
sS'!anounced'
p2363
I1
sS'!such'
p2364
I22
sS'!suck'
p2365
I7
sS'!language'
p2366
I1
sS'!hesitate'
p2367
I3
sS'!lass'
p2368
I1
sS'!last'
p2369
I29
sS'!focus'
p2370
I29
sS'!ugh'
p2371
I6
sS'!accounting'
p2372
I1
sS'!add'
p2373
I44
sS'!jew'
p2374
I1
sS'!jet'
p2375
I2
sS'!ads'
p2376
I1
sS'!paint'
p2377
I2
sS'!recored'
p2378
I1
sS'!reasonable'
p2379
I2
sS'!breave'
p2380
I1
sS'!written'
p2381
I1
sS'!tame'
p2382
I1
sS'!express'
p2383
I6
sS'!jave'
p2384
I1
sS'!authorised'
p2385
I2
sS'!workweird'
p2386
I1
sS'!exclusive'
p2387
I1
sS'!digitally'
p2388
I1
sS'!commenting'
p2389
I2
sS'!dumb'
p2390
I2
sS'!worthless'
p2391
I1
sS'!miley'
p2392
I5
sS'!cover'
p2393
I10
sS'!rubbish'
p2394
I1
sS'!script'
p2395
I1
sS'!originate'
p2396
I1
sS'!snowing'
p2397
I2
sS'!dump'
p2398
I1
sS'!load'
p2399
I119
sS'!kidding'
p2400
I22
sS'!enjoy'
p2401
I61
sS'!theyve'
p2402
I1
sS'!veg'
p2403
I1
sS'!straightening'
p2404
I1
sS'!equipped'
p2405
I2
sS'!blog'
p2406
I4
sS'!running'
p2407
I16
sS'!frown'
p2408
I2
sS'!looking'
p2409
I506
sS'!toy'
p2410
I1
sS'!top'
p2411
I2
sS'!together'
p2412
I15
sS'!wrking'
p2413
I2
sS'!kids'
p2414
I1
sS'!tinglish'
p2415
I1
sS'!too'
p2416
I369
sS'!naming'
p2417
I2
sS'!gutte'
p2418
I1
sS'!crazy'
p2419
I9
sS'!extra'
p2420
I1
sS'!otherwise'
p2421
I2
sS'!entertained'
p2422
I1
sS'!processed'
p2423
I1
sS'!withhe'
p2424
I1
sS'!amazing'
p2425
I6
sS'!reinstall'
p2426
I1
sS'!licensed'
p2427
I2
sS'!till'
p2428
I40
sS'!moving'
p2429
I24
sS'!gain'
p2430
I3
sS'!gosh'
p2431
I1
sS'!okey'
p2432
I1
sS'!unlocked'
p2433
I1
sS'!ginger'
p2434
I3
sS'!pity'
p2435
I1
sS'!suspended'
p2436
I1
sS'!tease'
p2437
I4
sS'!fulfilled'
p2438
I1
sS'!acceptable'
p2439
I4
sS'!breathing'
p2440
I3
sS'!dwnld'
p2441
I1
sS'!despair'
p2442
I1
sS'!alot'
p2443
I9
sS'!watching'
p2444
I66
sS'!quotsusanquot'
p2445
I1
sS'!babysitting'
p2446
I1
sS'!hog'
p2447
I2
sS'!collapsing'
p2448
I1
sS'!dignify'
p2449
I1
sS'!dressed'
p2450
I2
sS'!bye'
p2451
I2
sS'!affordable'
p2452
I1
sS'!infected'
p2453
I2
sS'!discredit'
p2454
I1
sS'!much'
p2455
I270
sS'!how'
p2456
I27
sS'!hot'
p2457
I26
sS'!skip'
p2458
I4
sS'!contagious'
p2459
I5
sS'!rajin'
p2460
I1
sS'!fan'
p2461
I2
sS'!fam'
p2462
I2
sS'!log'
p2463
I56
sS'!lol'
p2464
I44
sS'!los'
p2465
I1
sS'!special'
p2466
I13
sS'!okay'
p2467
I29
sS'!fat'
p2468
I19
sS'!far'
p2469
I15
sS'!cosy'
p2470
I1
sS'!agree'
p2471
I14
sS'!deja'
p2472
I1
sS'!cost'
p2473
I7
sS'!notice'
p2474
I6
sS'!lolla'
p2475
I1
sS'!darn'
p2476
I1
sS'!dark'
p2477
I3
sS'!happen'
p2478
I86
sS'!integrate'
p2479
I1
sS'!twitt'
p2480
I2
sS'!dare'
p2481
I1
sS'!baking'
p2482
I1
sS'!happee'
p2483
I2
sS'!labels'
p2484
I1
sS'!clue'
p2485
I1
sS'!club'
p2486
I1
sS'!earlier'
p2487
I2
sS'!gloomy'
p2488
I1
sS'!fixing'
p2489
I1
sS'!slip'
p2490
I1
sS'!thnks'
p2491
I2
sS'!cook'
p2492
I15
sS'!cool'
p2493
I343
sS'!own'
p2494
I7
sS'!quitting'
p2495
I1
sS'!trackmania'
p2496
I1
sS'!promising'
p2497
I3
sS'!telly'
p2498
I1
sS'!sexual'
p2499
I2
sS'!eat'
p2500
I205
sS'!prepared'
p2501
I15
sS'!enoght'
p2502
I1
sS'!tipsy'
p2503
I1
sS'!concert'
p2504
I1
sS'!wanta'
p2505
I1
sS'!accepted'
p2506
I6
sS'!sharing'
p2507
I7
sS'!replyin'
p2508
I3
sS'!according'
p2509
I4
sS'!http'
p2510
I1
sS'!hackable'
p2511
I1
sS'!unless'
p2512
I13
sS'!downstairs'
p2513
I1
sS'!nurse'
p2514
I1
sS'!concentratei'
p2515
I1
sS'!priority'
p2516
I1
sS'!pitch'
p2517
I1
sS'!permit'
p2518
I5
sS'!glendale'
p2519
I1
sS'!chandler'
p2520
I1
sS'!object'
p2521
I1
sS'!sensitive'
p2522
I1
sS'!matching'
p2523
I3
sS'!brains'
p2524
I1
sS'!likey'
p2525
I2
sS'!teenagers'
p2526
I1
sS'!liked'
p2527
I3
sS'!joey'
p2528
I1
sS'!natural'
p2529
I3
sS'!practising'
p2530
I1
sS'!long'
p2531
I55
sS'!screenshot'
p2532
I1
sS'!calling'
p2533
I13
sS'!riding'
p2534
I2
sS'!stealing'
p2535
I1
sS'!bare'
p2536
I3
sS'!guarantee'
p2537
I4
sS'!finished'
p2538
I37
sS'!none'
p2539
I2
sS'!showing'
p2540
I86
sS'!place'
p2541
I3
sS'!wana'
p2542
I1
sS'!yeey'
p2543
I1
sS'!light'
p2544
I3
sS'!want'
p2545
I256
sS'!crackin'
p2546
I1
sS'!fint'
p2547
I1
sS'!punshiment'
p2548
I1
sS'!sully'
p2549
I1
sS'!feeling'
p2550
I679
sS'!fine'
p2551
I11
sS'!find'
p2552
I1503
sS'!kidnap'
p2553
I1
sS'!fear'
p2554
I3
sS'!implying'
p2555
I1
sS'!broken'
p2556
I9
sS'!stoked'
p2557
I2
sS'!time'
p2558
I10
sS'!fire'
p2559
I2
sS'!grey'
p2560
I1
sS'!joesquot'
p2561
I1
sS'!seen'
p2562
I70
sS'!seem'
p2563
I342
sS'!melbourne'
p2564
I1
sS'!totally'
p2565
I9
sS'!seee'
p2566
I1
sS'!shes'
p2567
I4
sS'!feelin'
p2568
I74
sS'!reboot'
p2569
I1
sS'!trending'
p2570
I2
sS'!small'
p2571
I1
sS'!accesible'
p2572
I1
sS'!aceybear'
p2573
I1
sS'!although'
p2574
I3
sS'!okayquot'
p2575
I1
sS'!lower'
p2576
I2
sS'!quoteligiblequot'
p2577
I1
sS'!based'
p2578
I2
sS'!quarantined'
p2579
I2
sS'!rain'
p2580
I27
sS'!kitesurfing'
p2581
I1
sS'!tscc'
p2582
I1
sS'!offended'
p2583
I1
sS'!rollerblade'
p2584
I1
sS'!press'
p2585
I3
sS'!bore'
p2586
I1
sS'!step'
p2587
I2
sS'!skate'
p2588
I5
sS'!qweeter'
p2589
I1
sS'!coherent'
p2590
I1
sS'!sowing'
p2591
I1
sS'!arizona'
p2592
I1
sS'!practice'
p2593
I7
sS'!auction'
p2594
I1
sS'!excactly'
p2595
I1
sS'!humid'
p2596
I2
sS'!alonee'
p2597
I1
sS'!indexed'
p2598
I2
sS'!pay'
p2599
I30
sS'!convinced'
p2600
I6
sS'!google'
p2601
I3
sS'!print'
p2602
I4
sS'!talkin'
p2603
I9
sS'!goodthe'
p2604
I1
sS'!things'
p2605
I4
sS'!thinkingg'
p2606
I1
sS'!united'
p2607
I1
sS'!hunter'
p2608
I1
sS'!drifting'
p2609
I1
sS'!leavimg'
p2610
I1
sS'!dick'
p2611
I1
sS'!unhappy'
p2612
I1
sS'!claim'
p2613
I1
sS'!persuade'
p2614
I1
sS'!imagine'
p2615
I101
sS'!will'
p2616
I7
sS'!wild'
p2617
I2
sS'!ive'
p2618
I14
sS'!downing'
p2619
I1
sS'!haha'
p2620
I19
sS'!barf'
p2621
I1
sS'!hitting'
p2622
I2
sS'!bboys'
p2623
I1
sS'!blackberry'
p2624
I2
sS'!melt'
p2625
I3
sS'!login'
p2626
I14
sS'!liste'
p2627
I1
sS'!zq'
p2628
I1
sS'!imgaine'
p2629
I1
sS'!rainng'
p2630
I1
sS'!thin'
p2631
I1
sS'!unzip'
p2632
I1
sS'!ride'
p2633
I14
sS'!bring'
p2634
I58
sS'!alittle'
p2635
I1
sS'!anorexic'
p2636
I2
sS'!soph'
p2637
I1
sS'!waste'
p2638
I5
sS'!pushmore'
p2639
I1
sS'!overrun'
p2640
I1
sS'!waait'
p2641
I1
sS'!blue'
p2642
I3
sS'!respect'
p2643
I1
sS'!this'
p2644
I90
sS'!dishwasher'
p2645
I1
sS'!curse'
p2646
I2
sS'!shipped'
p2647
I2
sS'!payin'
p2648
I2
sS'!worn'
p2649
I2
sS'!work'
p2650
I460
sS'!somethin'
p2651
I1
sS'!mousing'
p2652
I1
sS'!offensive'
p2653
I1
sS'!mcdonalds'
p2654
I1
sS'!listening'
p2655
I19
sS'!spend'
p2656
I20
sS'!exactly'
p2657
I45
sS'!capitalize'
p2658
I1
sS'!choir'
p2659
I1
sS'!pinkpurpleflowery'
p2660
I1
sS'!orchid'
p2661
I1
sS'!sittin'
p2662
I2
sS'!saying'
p2663
I21
sS'!taachi'
p2664
I1
sS'!returnn'
p2665
I1
sS'!woantitip'
p2666
I1
sS'!opt'
p2667
I1
sS'!dleeping'
p2668
I1
sS'!setanta'
p2669
I1
sS'!ganna'
p2670
I1
sS'!sting'
p2671
I1
sS'!rocking'
p2672
I1
sS'!evil'
p2673
I1
sS'!cosign'
p2674
I1
sS'!pampc'
p2675
I1
sS'!bethere'
p2676
I1
sS'!peaceful'
p2677
I2
sS'!eff'
p2678
I1
sS'!forlornly'
p2679
I1
sS'!downgrade'
p2680
I1
sS'!flowering'
p2681
I1
sS'!another'
p2682
I17
sS'!innocent'
p2683
I1
sS'!anyways'
p2684
I1
sS'!holidays'
p2685
I1
sS'!labeled'
p2686
I1
sS'!banging'
p2687
I1
sS'!abs'
p2688
I1
sS'!abt'
p2689
I1
sS'!stream'
p2690
I6
sS'!downloadin'
p2691
I1
sS'!impress'
p2692
I1
sS'!gmail'
p2693
I2
sS'!defense'
p2694
I1
sS'!status'
p2695
I1
sS'!escaping'
p2696
I1
sS'!server'
p2697
I1
sS'!legally'
p2698
I4
sS'!chearing'
p2699
I1
sS'!chance'
p2700
I1
sS'!ungrounded'
p2701
I1
sS'!intersted'
p2702
I1
sS'!surprisingly'
p2703
I1
sS'!lool'
p2704
I1
sS'!jackalltimelow'
p2705
I1
sS'!look'
p2706
I57
sS'!augh'
p2707
I1
sS'!face'
p2708
I7
sS'!draink'
p2709
I1
sS'!honduras'
p2710
I1
sS'!ccny'
p2711
I1
sS'!plugged'
p2712
I1
sS'!anybody'
p2713
I1
sS'!asking'
p2714
I6
sS'!phenomenal'
p2715
I1
sS'!tues'
p2716
I1
sS'!happenin'
p2717
I3
sS'!fluent'
p2718
I1
sS'!stinkin'
p2719
I1
sS'!fresh'
p2720
I1
sS'!raise'
p2721
I3
sS'!aching'
p2722
I1
sS'!jst'
p2723
I1
sS'!exceed'
p2724
I1
sS'!helping'
p2725
I77
sS'!metro'
p2726
I1
sS'!wear'
p2727
I56
sS'!tink'
p2728
I1
sS'!normal'
p2729
I12
sS'!field'
p2730
I1
sS'!defeiend'
p2731
I1
sS'!seeming'
p2732
I1
sS'!afraid'
p2733
I4
sS'!fish'
p2734
I2
sS'!freaking'
p2735
I7
sS'!shouting'
p2736
I1
sS'!memorize'
p2737
I1
sS'!deathly'
p2738
I1
sS'!covered'
p2739
I6
sS'!recover'
p2740
I3
sS'!temporary'
p2741
I1
sS'!repro'
p2742
I1
sS'!cutting'
p2743
I6
sS'!phone'
p2744
I3
sS'!graduate'
p2745
I5
sS'!apparently'
p2746
I1
sS'!sharks'
p2747
I1
sS'!suffice'
p2748
I1
sS'!spent'
p2749
I3
sS'!goin'
p2750
I47
sS'!lie'
p2751
I23
sS'!where'
p2752
I17
sS'!curtinde'
p2753
I1
sS'!organised'
p2754
I1
sS'!fond'
p2755
I6
sS'!quotrifficquot'
p2756
I1
sS'!beastly'
p2757
I1
sS'!stfu'
p2758
I1
sS'!devour'
p2759
I1
sS'!accommodate'
p2760
I1
sS'!wel'
p2761
I1
sS'!tie'
p2762
I1
sS'!thats'
p2763
I11
sS'!quinoa'
p2764
I1
sS'!celebrate'
p2765
I4
sS'!til'
p2766
I25
sS'!web'
p2767
I1
sS'!movin'
p2768
I2
sS'!hurtin'
p2769
I1
sS'!tix'
p2770
I1
sS'!ocular'
p2771
I1
sS'!wet'
p2772
I3
sS'!publish'
p2773
I4
sS'!approved'
p2774
I3
sS'!felt'
p2775
I4
sS'!digging'
p2776
I12
sS'!rectify'
p2777
I1
sS'!blogging'
p2778
I3
sS'!necessarily'
p2779
I5
sS'!multi'
p2780
I1
sS'!mixing'
p2781
I2
sS'!affect'
p2782
I2
sS'!filmed'
p2783
I1
sS'!arghhh'
p2784
I1
sS'!yelping'
p2785
I1
sS'!laabenda'
p2786
I1
sS'!brewed'
p2787
I1
sS'!tight'
p2788
I3
sS'!kinda'
p2789
I1
sS'!replied'
p2790
I2
sS'!program'
p2791
I2
sS'!flossing'
p2792
I2
sS'!rise'
p2793
I2
sS'!bobby'
p2794
I1
sS'!kune'
p2795
I1
sS'!raising'
p2796
I1
sS'!ym'
p2797
I2
sS'!tried'
p2798
I6
sS'!yo'
p2799
I1
sS'!yn'
p2800
I1
sS'!winter'
p2801
I3
sS'!manage'
p2802
I11
sS'!ya'
p2803
I2
sS'!antiscience'
p2804
I1
sS'!depends'
p2805
I1
sS'!approve'
p2806
I10
sS'!ethics'
p2807
I1
sS'!wakeboard'
p2808
I1
sS'!yu'
p2809
I1
sS'!invincible'
p2810
I1
sS'!fnid'
p2811
I1
sS'!lolz'
p2812
I1
sS'!zeke'
p2813
I1
sS'!believed'
p2814
I2
sS'!expecting'
p2815
I7
sS'!office'
p2816
I1
sS'!crappywe'
p2817
I1
sS'!tarheel'
p2818
I1
sS'!cont'
p2819
I1
sS'!becoming'
p2820
I1
sS'!turning'
p2821
I11
sS'!fukin'
p2822
I1
sS'!partake'
p2823
I2
sS'!dtrix'
p2824
I1
sS'!cooking'
p2825
I1
sS'!repply'
p2826
I1
sS'!replace'
p2827
I5
sS'!slutty'
p2828
I1
sS'!gay'
p2829
I10
sS'!avbl'
p2830
I1
sS'!missfamiliar'
p2831
I1
sS'!usefull'
p2832
I1
sS'!contain'
p2833
I2
sS'!hooking'
p2834
I1
sS'!pol09'
p2835
I1
sS'!laugh'
p2836
I7
sS'!wout'
p2837
I1
sS'!wall'
p2838
I1
sS'!hosting'
p2839
I1
sS'!walk'
p2840
I57
sS'!decides'
p2841
I1
sS'!chew'
p2842
I4
sS'!inspired'
p2843
I2
sS'!swear'
p2844
I2
sS'!touch'
p2845
I16
sS'!theirs'
p2846
I1
sS'!subway'
p2847
I1
sS'!doomed'
p2848
I1
sS'!film'
p2849
I1
sS'!fill'
p2850
I3
sS'!cuddling'
p2851
I1
sS'!4get'
p2852
I2
sS'!wiped'
p2853
I1
sS'!search'
p2854
I4
sS'!looks'
p2855
I3
sS'!meanie'
p2856
I1
sS'!little'
p2857
I4
sS'!jolly'
p2858
I1
sS'!cindys'
p2859
I1
sS'!stayn'
p2860
I1
sS'!able2barchived'
p2861
I1
sS'!free'
p2862
I26
sS'!yeyt'
p2863
I1
sS'!lookn'
p2864
I1
sS'!freo'
p2865
I1
sS'!longer'
p2866
I2
sS'!pythons'
p2867
I1
sS'!ringing'
p2868
I1
sS'!feasable'
p2869
I1
sS'!headlining'
p2870
I1
sS'!since'
p2871
I11
sS'!soaping'
p2872
I1
sS'!made'
p2873
I17
sS'!not'
p2874
I29
sS'!display'
p2875
I10
sS'!under'
p2876
I6
sS'!goto'
p2877
I3
sS'!plz'
p2878
I1
sS'!smart'
p2879
I15
sS'!responding'
p2880
I16
sS'!attractive'
p2881
I3
sS'!pls'
p2882
I1
sS'!alcoholquot'
p2883
I1
sS'!formally'
p2884
I1
sS'!stonor'
p2885
I1
sS'!eleive'
p2886
I1
sS'!act'
p2887
I6
sS'!games'
p2888
I1
sS'!driving'
p2889
I14
sS'!wanna'
p2890
I29
sS'!screw'
p2891
I4
sS'!expected'
p2892
I2
sS'!validate'
p2893
I1
sS'!retire'
p2894
I2
sS'!guilty'
p2895
I1
sS'!answering'
p2896
I32
sS'!the'
p2897
I990
sS'!stretch'
p2898
I5
sS'!anyone'
p2899
I13
sS'!tho'
p2900
I12
sS'!thr'
p2901
I1
sS'!instockgrr'
p2902
I1
sS'!starbucks'
p2903
I1
sS'!tht'
p2904
I6
sS'!damn'
p2905
I7
sS'!stormy'
p2906
I1
sS'!memba'
p2907
I1
sS'!white'
p2908
I1
sS'!oinkflu'
p2909
I1
sS'!slept'
p2910
I16
sS'!essaywriting'
p2911
I1
sS'!bitter'
p2912
I7
sS'!hive'
p2913
I1
sS'!works'
p2914
I2
sS'!starting'
p2915
I10
sS'!blindly'
p2916
I1
sS'!workk'
p2917
I1
sS'!somebody'
p2918
I3
sS'!workn'
p2919
I1
sS'!horrible'
p2920
I3
sS'!active'
p2921
I4
sS'!currently'
p2922
I10
sS'!qd3'
p2923
I1
sS'!its'
p2924
I71
sS'!fit'
p2925
I51
sS'!remotely'
p2926
I1
sS'!tweeting'
p2927
I16
sS'!wolverine'
p2928
I1
sS'!bond'
p2929
I3
sS'!unfill'
p2930
I1
sS'!xx'
p2931
I8
sS'!textcallsurf'
p2932
I1
sS'!straight'
p2933
I1
sS'!seehearwatch'
p2934
I1
sS'!mtg'
p2935
I1
sS'!every'
p2936
I7
sS'!broadcasting'
p2937
I6
sS'!wanted'
p2938
I7
sS'!updating'
p2939
I20
sS'!wrinkle'
p2940
I1
sS'!edit'
p2941
I7
sS'!living'
p2942
I11
sS'!evern'
p2943
I1
sS'!existence'
p2944
I1
sS'!authenticatingkey'
p2945
I1
sS'!completely'
p2946
I10
sS'!hideously'
p2947
I1
sS'!sore'
p2948
I3
sS'!people'
p2949
I13
sS'!permanent'
p2950
I2
sS'!retroactively'
p2951
I1
sS'!conform'
p2952
I1
sS'!sort'
p2953
I5
sS'!witty'
p2954
I2
sS'!bbf'
p2955
I1
sS'!noah'
p2956
I1
sS'!bbm'
p2957
I1
sS'!wake'
p2958
I35
sS'!bbq'
p2959
I2
sS'!chart'
p2960
I1
sS'!yalls'
p2961
I1
sS'!niice'
p2962
I1
sS'!spell'
p2963
I37
sS'!quick'
p2964
I2
sS'!pedas'
p2965
I1
sS'!always'
p2966
I50
sS'!funny'
p2967
I147
sS'!alwayz'
p2968
I1
sS'!quite'
p2969
I80
sS'!forgetget'
p2970
I1
sS'!posting'
p2971
I6
sS'!rmember'
p2972
I1
sS'!forgive'
p2973
I2
sS'!rotate'
p2974
I3
sS'!shaping'
p2975
I2
sS'!sponsor'
p2976
I3
sS'!evaruth'
p2977
I1
sS'!losers'
p2978
I1
sS'!hatched'
p2979
I1
sS'!august'
p2980
I2
sS'!included'
p2981
I8
sS'!punish'
p2982
I1
sS'!considered'
p2983
I2
sS'!kutner'
p2984
I1
sS'!losing'
p2985
I1
sS'!ronin7'
p2986
I1
sS'!begging'
p2987
I1
sS'!sprint'
p2988
I1
sS'!penguin'
p2989
I1
sS'!donating'
p2990
I2
sS'!unleash'
p2991
I1
sS'!treatin'
p2992
I1
sS'!convince'
p2993
I1
sS'!aligned'
p2994
I1
sS'!guess'
p2995
I6
sS'!cotton'
p2996
I1
sS'!caring'
p2997
I6
sS'!open'
p2998
I138
sS'!mending'
p2999
I1
sS'!xox'
p3000
I1
sS'!gotta'
p3001
I8
sS'!unpacked'
p3002
I4
sS'!directing'
p3003
I1
sS'!sheila'
p3004
I1
sS'!miss'
p3005
I42
sS'!control'
p3006
I13
sS'!purty'
p3007
I1
sS'!fiesty'
p3008
I1
sS'!qualified'
p3009
I2
sS'!friggin'
p3010
I1
sS'!hayley'
p3011
I1
sS'!theyre'
p3012
I5
sS'!showered'
p3013
I2
sS'!signed'
p3014
I6
sS'!join'
p3015
I48
sS'!rigth'
p3016
I1
sS'!doo'
p3017
I2
sS'!sending'
p3018
I12
sS'!intelligent'
p3019
I1
sS'!monday'
p3020
I6
sS'!dind'
p3021
I1
sS'!aimin'
p3022
I1
sS'!dint'
p3023
I1
sS'!alkaline'
p3024
I2
sS'!queen'
p3025
I1
sS'!makin'
p3026
I4
sS'!secure'
p3027
I2
sS'!dream'
p3028
I2
sS'!exist'
p3029
I19
sS'!poa'
p3030
I1
sS'!nandos'
p3031
I1
sS'!vouch'
p3032
I1
sS'!driink'
p3033
I1
sS'!encouraging'
p3034
I4
sS'!lasting'
p3035
I1
sS'!pleasure'
p3036
I1
sS'!pop'
p3037
I7
sS'!alcohol'
p3038
I1
sS'!matter'
p3039
I7
sS'!pox'
p3040
I1
sS'!friendly'
p3041
I2
sS'!between'
p3042
I1
sS'!june'
p3043
I3
sS'!visti'
p3044
I1
sS'!reallyyy'
p3045
I1
sS'!outsiders'
p3046
I1
sS'!some'
p3047
I12
sS'!creamy'
p3048
I1
sS'!gutted'
p3049
I2
sS'!lovinging'
p3050
I1
sS'!broadcast'
p3051
I2
sS'!httpbitly19vhuo'
p3052
I1
sS'!deny'
p3053
I7
sS'!scrobbled'
p3054
I2
sS'!beleave'
p3055
I1
sS'!rushing'
p3056
I1
sS'!jailbreak'
p3057
I3
sS'!aa'
p3058
I1
sS'!there'
p3059
I301
sS'!lovely'
p3060
I1
sS'!kathrynyo'
p3061
I1
sS'!page'
p3062
I1
sS'!tolerate'
p3063
I2
sS'!dang'
p3064
I2
sS'!feeel'
p3065
I1
sS'!dere'
p3066
I1
sS'!tests'
p3067
I1
sS'!manufacturers'
p3068
I1
sS'!golfy'
p3069
I1
sS'!rearrange'
p3070
I1
sS'!smile'
p3071
I8
sS'!spayed'
p3072
I1
sS'!book'
p3073
I6
sS'!boot'
p3074
I13
sS'!chuffed'
p3075
I1
sS'!photogenic'
p3076
I2
sS'!strictly'
p3077
I1
sS'!continue'
p3078
I9
sS'!wishing'
p3079
I1
sS'!onnn'
p3080
I1
sS'!privvy'
p3081
I1
sS'!phuck'
p3082
I1
sS'!front'
p3083
I5
sS'!sunbathe'
p3084
I3
sS'!nightwing'
p3085
I1
sS'!wolves'
p3086
I1
sS'!freakin'
p3087
I7
sS'!boyfriend'
p3088
I1
sS'!blasphemy'
p3089
I1
sS'!throw'
p3090
I6
sS'!wtmx'
p3091
I1
sS'!rice'
p3092
I2
sS'!rich'
p3093
I8
sS'!ughgoddamnit'
p3094
I1
sS'!mum'
p3095
I2
sS'!steve'
p3096
I1
sS'!tweetdeck'
p3097
I2
sS'!gudd'
p3098
I2
sS'!viewlisten'
p3099
I1
sS'!mobileme'
p3100
I1
sS'!serious'
p3101
I14
sS'!rubbing'
p3102
I1
sS'!durn'
p3103
I1
sS'!ctfu'
p3104
I1
sS'!complaining'
p3105
I8
sS'!ca'
p3106
I1
sS'!readyy'
p3107
I1
sS'!everyday'
p3108
I1
sS'!becuz'
p3109
I2
sS'!gooddd'
p3110
I1
sS'!tribal'
p3111
I1
sS'!mix'
p3112
I11
sS'!cu'
p3113
I2
sS'!winston'
p3114
I1
sS'!green'
p3115
I11
sS'!helpful'
p3116
I5
sS'!smell'
p3117
I8
sS'!bad'
p3118
I114
sS'!release'
p3119
I12
sS'!bak'
p3120
I1
sS'!music'
p3121
I2
sS'!taken'
p3122
I6
sS'!unfollow'
p3123
I5
sS'!asthma'
p3124
I1
sS'!jalouse'
p3125
I1
sS'!loves'
p3126
I2
sS'!muchhh'
p3127
I1
sS'!explain'
p3128
I20
sS'!blogged'
p3129
I2
sS'!loved'
p3130
I3
sS'!assignment'
p3131
I1
sS'!comprehensive'
p3132
I1
sS'!handed'
p3133
I1
sS'!cooperate'
p3134
I6
sS'!pirate'
p3135
I1
sS'!biking'
p3136
I1
sS'!resolving'
p3137
I2
sS'!sean'
p3138
I1
sS'!seam'
p3139
I1
sS'!seal'
p3140
I1
sS'!already'
p3141
I8
sS'!violent'
p3142
I2
sS'!lust'
p3143
I1
sS'!soccer'
p3144
I1
sS'!nemore'
p3145
I2
sS'!indulge'
p3146
I1
sS'!munched'
p3147
I1
sS'!next'
p3148
I11
sS'!flying'
p3149
I6
sS'!appreciating'
p3150
I2
sS'!quotdoablequot'
p3151
I1
sS'!straightforward'
p3152
I1
sS'!relieve'
p3153
I1
sS'!slow'
p3154
I10
sS'!dope'
p3155
I1
sS'!fried'
p3156
I1
sS'!fathom'
p3157
I3
sS'!daddys'
p3158
I1
sS'!stranded'
p3159
I1
sS'!blurays'
p3160
I1
sS'!beyond'
p3161
I1
sS'!rdfxml'
p3162
I1
sS'!english'
p3163
I3
sS'!dance'
p3164
I12
sS'!past'
p3165
I2
sS'!verified'
p3166
I1
sS'!tiny'
p3167
I2
sS'!contentrate'
p3168
I1
sS'!brush'
p3169
I1
sS'!gonnaa'
p3170
I1
sS'!these'
p3171
I3
sS'!school'
p3172
I5
sS'!cause'
p3173
I41
sS'!theree'
p3174
I1
sS'!developed'
p3175
I1
sS'!scow'
p3176
I1
sS'!jamesog'
p3177
I1
sS'!bringin'
p3178
I2
sS'!thankful'
p3179
I1
sS'!tonight'
p3180
I42
sS'!theres'
p3181
I5
sS'!bringing'
p3182
I11
sS'!dnt'
p3183
I1
sS'!completing'
p3184
I1
sS'!spread'
p3185
I3
sS'!succeed'
p3186
I2
sS'!ddub'
p3187
I2
sS'!senior'
p3188
I1
sS'!sayang'
p3189
I1
sS'!techy'
p3190
I1
sS'!confirm'
p3191
I3
sS'!luwas'
p3192
I1
sS'!therelolzz'
p3193
I1
sS'!shoot'
p3194
I12
sS'!readem'
p3195
I1
sS'!compare'
p3196
I7
sS'!missed'
p3197
I1
sS'!impressed'
p3198
I70
sS'!breathee'
p3199
I1
sS'!friday'
p3200
I10
sS'!hell'
p3201
I1
sS'!chase'
p3202
I2
sS'!kish'
p3203
I1
sS'!cupid'
p3204
I1
sS'!help'
p3205
I289
sS'!kiss'
p3206
I5
sS'!vietnam'
p3207
I2
sS'!practical'
p3208
I2
sS'!kicked'
p3209
I1
sS'!ungrateful'
p3210
I1
sS'!gimme'
p3211
I1
sS'!quotquite'
p3212
I1
sS'!glued'
p3213
I2
sS'!cramp'
p3214
I1
sS'!heels'
p3215
I1
sS'!youu'
p3216
I2
sS'!bangaits'
p3217
I1
sS'!your'
p3218
I61
sS'!wearing'
p3219
I11
sS'!chemically'
p3220
I1
sS'!katie'
p3221
I1
sS'!forgiven'
p3222
I3
sS'!each'
p3223
I1
sS'!freezing'
p3224
I2
sS'!xctd'
p3225
I1
sS'!clearheaded'
p3226
I1
sS'!amazon'
p3227
I1
sS'!texas'
p3228
I1
sS'!420'
p3229
I1
sS'!ghost'
p3230
I1
sS'!bouncing'
p3231
I1
sS'!drunkz'
p3232
I1
sS'!burnt'
p3233
I1
sS'!afford'
p3234
I316
sS'!bandaid'
p3235
I1
sS'!though'
p3236
I23
sS'!beautiful'
p3237
I2
sS'!sold'
p3238
I10
sS'!occasionally'
p3239
I1
sS'!stay'
p3240
I106
sS'!promisemight'
p3241
I1
sS'!ganggu'
p3242
I1
sS'!wait'
p3243
I1474
sS'!shampoo'
p3244
I1
sS'!spare'
p3245
I1
sS'!bethpage'
p3246
I1
sS'!felicity'
p3247
I1
sS'!tune'
p3248
I5
sS'!puppy'
p3249
I1
sS'!laughing'
p3250
I10
sS'!spark'
p3251
I1
sS'!desparte'
p3252
I1
sS'!destroy'
p3253
I2
sS'!ggoing'
p3254
I1
sS'!quiet'
p3255
I1
sS'!heree'
p3256
I1
sS'!rly'
p3257
I6
sS'!affrd'
p3258
I1
sS'!toast'
p3259
I1
sS'!succes'
p3260
I1
sS'!t2ype'
p3261
I1
sS'!half'
p3262
I8
sS'!togeather'
p3263
I1
sS'!during'
p3264
I4
sS'!downtown'
p3265
I1
sS'!any'
p3266
I35
sS'!veiw'
p3267
I1
sS'!test'
p3268
I4
sS'!ans'
p3269
I1
sS'!lunchtime'
p3270
I2
sS'!sellng'
p3271
I1
sS'!savvy'
p3272
I2
sS'!ve'
p3273
I2
sS'!and'
p3274
I51
sS'!blur'
p3275
I1
sS'!takr'
p3276
I1
sS'!injuring'
p3277
I1
sS'!bffs'
p3278
I2
sS'!comin'
p3279
I13
sS'!b4'
p3280
I2
sS'!take'
p3281
I323
sS'!bodyguard'
p3282
I1
sS'!barely'
p3283
I6
sS'!individually'
p3284
I1
sS'!allergies'
p3285
I4
sS'!switch'
p3286
I11
sS'!draw'
p3287
I11
sS'!diversity'
p3288
I2
sS'!takeme'
p3289
I1
sS'!eatings'
p3290
I1
sS'!drag'
p3291
I3
sS'!ba'
p3292
I1
sS'!bb'
p3293
I2
sS'!bc'
p3294
I4
sS'!bd'
p3295
I1
sS'!be'
p3296
I3236
sS'!suremost'
p3297
I1
sS'!bn'
p3298
I1
sS'!kwai'
p3299
I1
sS'!bv'
p3300
I1
sS'!theyll'
p3301
I1
sS'!by'
p3302
I30
sS'!failing'
p3303
I1
sS'!dir'
p3304
I1
sS'!dwell'
p3305
I3
sS'!stopquot'
p3306
I1
sS'!checked'
p3307
I2
sS'!complainin'
p3308
I1
sS'!did'
p3309
I6
sS'!die'
p3310
I17
sS'!kind'
p3311
I7
sS'!dig'
p3312
I1
sS'!unloved'
p3313
I1
sS'!trusted'
p3314
I1
sS'!pure'
p3315
I1
sS'!weel'
p3316
I1
sS'!week'
p3317
I1
sS'!deposit'
p3318
I1
sS'!played'
p3319
I6
sS'!critique'
p3320
I1
sS'!purgatory'
p3321
I1
sS'!purr'
p3322
I1
sS'!readdy'
p3323
I1
sS'!reslishing'
p3324
I1
sS'!agreeing'
p3325
I4
sS'!duller'
p3326
I1
sS'!ashley'
p3327
I1
sS'!updte'
p3328
I1
sS'!homicide'
p3329
I1
sS'!turn'
p3330
I76
sS'!rested'
p3331
I1
sS'!fantasize'
p3332
I1
sS'!britneys'
p3333
I1
sS'!idrk'
p3334
I1
sS'!awesomely'
p3335
I1
sS'!commercially'
p3336
I1
sS'!young'
p3337
I1
sS'!directed'
p3338
I1
sS'!crew'
p3339
I1
sS'!compatable'
p3340
I1
sS'!mail'
p3341
I5
sS'!keeping'
p3342
I6
sS'!main'
p3343
I2
sS'!lemme'
p3344
I7
sS'!crea'
p3345
I1
sS'!beatin'
p3346
I1
sS'!solve'
p3347
I3
sS'!july'
p3348
I3
sS'!provide'
p3349
I6
sS'!hun'
p3350
I3
sS'!rained'
p3351
I1
sS'!poke'
p3352
I1
sS'!ahaha'
p3353
I1
sS'!avoid'
p3354
I5
sS'!realised'
p3355
I1
sS'!letting'
p3356
I102
sS'!hurt'
p3357
I30
sS'!getin'
p3358
I2
sS'!let'
p3359
I935
sS'!without'
p3360
I11
sS'!grrr'
p3361
I1
sS'!gomy'
p3362
I1
sS'!grrl'
p3363
I1
sS'!leh'
p3364
I1
sS'!unfortunately'
p3365
I2
sS'!sooo'
p3366
I2
sS'!doingit'
p3367
I1
sS'!cheerful'
p3368
I1
sS'!germany'
p3369
I1
sS'!need'
p3370
I34
sS'!rock'
p3371
I6
sS'!jsp'
p3372
I1
sS'!wrote'
p3373
I1
sS'!doze'
p3374
I1
sS'!was'
p3375
I4
sS'!war'
p3376
I1
sS'!forrest'
p3377
I1
sS'!play'
p3378
I242
sS'!wat'
p3379
I3
sS'!wax'
p3380
I1
sS'!deciding'
p3381
I1
sS'!payg'
p3382
I1
sS'!wag'
p3383
I1
sS'!wak'
p3384
I1
sS'!wai'
p3385
I1
sS'!wan'
p3386
I1
sS'!insane'
p3387
I1
sS'!sleeep'
p3388
I8
sS'!holding'
p3389
I14
sS'!travel'
p3390
I7
sS'!upgrade'
p3391
I25
sS'!belives'
p3392
I1
sS'!including'
p3393
I4
sS'!participating'
p3394
I5
sS'!lazy'
p3395
I3
sS'!only'
p3396
I76
sS'!imagen'
p3397
I1
sS'!releasing'
p3398
I2
sS'!paula'
p3399
I1
sS'!due'
p3400
I8
sS'!upload'
p3401
I158
sS'!wings'
p3402
I1
sS'!duh'
p3403
I1
sS'!voxing'
p3404
I1
sS'!cuming'
p3405
I1
sS'!october'
p3406
I2
sS'!concentrating'
p3407
I1
sS'!write'
p3408
I43
sS'!witness'
p3409
I1
sS'!empathise'
p3410
I1
sS'!suppoesed'
p3411
I1
sS'!duty'
p3412
I1
sS'!bruise'
p3413
I1
sS'!type'
p3414
I35
sS'!bowling'
p3415
I1
sS'!twittering'
p3416
I10
sS'!college'
p3417
I1
sS'!materializing'
p3418
I1
sS'!moh'
p3419
I1
sS'!meetup'
p3420
I1
sS'!ac'
p3421
I1
sS'!am'
p3422
I5
sS'!al'
p3423
I2
sS'!an'
p3424
I103
sS'!philips'
p3425
I1
sS'!ah'
p3426
I1
sS'!au'
p3427
I1
sS'!at'
p3428
I277
sS'!aw'
p3429
I1
sS'!nive'
p3430
I1
sS'!as'
p3431
I378
sS'!mow'
p3432
I2
sS'!happening'
p3433
I56
sS'!smooth'
p3434
I2
sS'!acknowledge'
p3435
I1
sS'!chipping'
p3436
I1
sS'!bgt'
p3437
I1
sS'!closed'
p3438
I1
sS'!sound'
p3439
I19
sS'!heading'
p3440
I4
sS'!unfollowing'
p3441
I1
sS'!admit'
p3442
I5
sS'!sweet'
p3443
I3
sS'!taking'
p3444
I38
sS'!admin'
p3445
I1
sS'!transfer'
p3446
I5
sS'!against'
p3447
I2
sS'!burst'
p3448
I1
sS'!tough'
p3449
I2
sS'!bragging'
p3450
I1
sS'!existquot'
p3451
I1
sS'!playn'
p3452
I2
sS'!viable'
p3453
I1
sS'!wate'
p3454
I1
sS'!goddess'
p3455
I1
sS'!sniffles'
p3456
I1
sS'!effing'
p3457
I2
sS'!postmen'
p3458
I1
sS'!gary'
p3459
I1
sS'!group'
p3460
I1
sS'!uni'
p3461
I2
sS'!coppy'
p3462
I1
sS'!lebron'
p3463
I1
sS'!fakerparis'
p3464
I1
sS'!chicago'
p3465
I1
sS'!lurkloving'
p3466
I1
sS'!functional'
p3467
I2
sS'!recieving'
p3468
I1
sS'!preorder'
p3469
I2
sS'!sufficiently'
p3470
I1
sS'!opening'
p3471
I8
sS'!hiring'
p3472
I2
sS'!comprehend'
p3473
I2
sS'!mariahfan'
p3474
I1
sS'!yeeet'
p3475
I1
sS'!fade'
p3476
I2
sS'!saturday'
p3477
I8
sS'!bored'
p3478
I7
sS'!havem'
p3479
I1
sS'!roll'
p3480
I2
sS'!scrapbooking'
p3481
I1
sS'!allowing'
p3482
I9
sS'!of'
p3483
I21
sS'!adobe'
p3484
I1
sS'!handle'
p3485
I83
sS'!comforted'
p3486
I1
sS'!significant'
p3487
I1
sS'!understanding'
p3488
I5
sS'!german'
p3489
I2
sS'!owerup'
p3490
I1
sS'!scan'
p3491
I1
sS'!caught'
p3492
I1
sS'!stalker'
p3493
I2
sS'!oo'
p3494
I1
sS'!mesame'
p3495
I1
sS'!commentbut'
p3496
I1
sS'!copying'
p3497
I1
sS'!scar'
p3498
I1
sS'!ol'
p3499
I1
sS'!mee'
p3500
I1
sS'!rachel'
p3501
I1
sS'!activated'
p3502
I3
sS'!car'
p3503
I2
sS'!participatinqq'
p3504
I1
sS'!muchh'
p3505
I1
sS'!here'
p3506
I250
sS'!todayy'
p3507
I2
sS'!promote'
p3508
I1
sS'!rainy'
p3509
I1
sS'!hooters'
p3510
I1
sS'!todays'
p3511
I1
sS'!fingers'
p3512
I1
sS'!avilable'
p3513
I2
sS'!consistent'
p3514
I2
sS'!communicative'
p3515
I1
sS'!17th'
p3516
I1
sS'!britain'
p3517
I1
sS'!summertime'
p3518
I1
sS'!scheduled'
p3519
I4
sS'!marry'
p3520
I2
sS'!lining'
p3521
I2
sS'!permitted'
p3522
I3
sS'!understand'
p3523
I90
sS'!acting'
p3524
I2
sS'!can'
p3525
I3
sS'!tawkin'
p3526
I1
sS'!jump'
p3527
I5
sS'!sapose'
p3528
I1
sS'!2nite'
p3529
I2
sS'!electron'
p3530
I1
sS'!personalize'
p3531
I1
sS'!hopeful'
p3532
I5
sS'!swim'
p3533
I18
sS'!hte'
p3534
I1
sS'!talkd'
p3535
I1
sS'!talkn'
p3536
I1
sS'!golf'
p3537
I3
sS'!clickable'
p3538
I1
sS'!gold'
p3539
I1
sS'!spill'
p3540
I1
sS'!erase'
p3541
I1
sS'!spilt'
p3542
I1
sS'!backed'
p3543
I1
sS'!lurk'
p3544
I1
sS'!fuel'
p3545
I1
sS'!bff'
p3546
I1
sS'!closing'
p3547
I3
sS'!viewable'
p3548
I1
sS'!showign'
p3549
I1
sS'!pluck'
p3550
I1
sS'!familiar'
p3551
I7
sS'!demon'
p3552
I1
sS'!splurge'
p3553
I1
sS'!breaking'
p3554
I3
sS'!ideal'
p3555
I5
sS'!lined'
p3556
I1
sS'!accommodating'
p3557
I1
sS'!briefff'
p3558
I1
sS'!preforming'
p3559
I1
sS'!hold'
p3560
I25
sS'!manila'
p3561
I1
sS'!tgther'
p3562
I1
sS'!sufficient'
p3563
I1
sS'!xolauren'
p3564
I1
sS'!ehe'
p3565
I1
sS'!quotallowedquot'
p3566
I1
sS'!learn'
p3567
I6
sS'!code'
p3568
I1
sS'!flouting'
p3569
I1
sS'!satanists'
p3570
I1
sS'!hang'
p3571
I44
sS'!adapting'
p3572
I1
sS'!hand'
p3573
I1
sS'!folliwin'
p3574
I1
sS'!himself'
p3575
I1
sS'!kissing'
p3576
I3
sS'!sleep\xc3\xaf\xc2\xbf\xc2\xbdugh'
p3577
I1
sS'!chillin'
p3578
I2
sS'!sunnycold'
p3579
I2
sS'!scream'
p3580
I3
sS'!yow'
p3581
I1
sS'!subsided'
p3582
I1
sS'!you'
p3583
I234
sS'!enjoying'
p3584
I53
sS'!all'
p3585
I129
sS'!danny'
p3586
I2
sS'!ale'
p3587
I1
sS'!desperate'
p3588
I1
sS'!spoken'
p3589
I1
sS'!commented'
p3590
I1
sS'!partying'
p3591
I2
sS'!today'
p3592
I60
sS'!however'
p3593
I1
sS'!interact'
p3594
I1
sS'!guys'
p3595
I4
sS'!customer'
p3596
I1
sS'!passing'
p3597
I2
sS'!jens'
p3598
I1
sS'!coolio'
p3599
I1
sS'!planning'
p3600
I7
sS'!changed'
p3601
I5
sS'!walmart'
p3602
I1
sS'!playable'
p3603
I1
sS'!every1'
p3604
I1
sS'!sighs'
p3605
I2
sS'!sight'
p3606
I1
sS'!customizable'
p3607
I1
sS'!discover'
p3608
I1
sS'!posed'
p3609
I1
sS'!rap'
p3610
I1
sS'!everynight'
p3611
I1
sS'!build'
p3612
I2
sS'!right'
p3613
I100
sS'!righr'
p3614
I1
sS'!meaning'
p3615
I2
sS'!screwed'
p3616
I1
sS'!kill'
p3617
I15
sS'!built'
p3618
I3
sS'!around'
p3619
I34
sS'!overheating'
p3620
I1
sS'!persist'
p3621
I1
sS'!updage'
p3622
I1
sS'!greeting'
p3623
I1
sS'!bias'
p3624
I1
sS'!quotflyquot'
p3625
I1
sS'!onlinee'
p3626
I1
sS'!comeing'
p3627
I1
sS'!fracture'
p3628
I1
sS'!happy'
p3629
I438
sS'!mother'
p3630
I1
sS'!wash'
p3631
I4
sS'!makes'
p3632
I1
sS'!humping'
p3633
I1
sS'!mckinney'
p3634
I1
sS'!jinx'
p3635
I1
sS'!luccy'
p3636
I1
sS'!youll'
p3637
I3
sS'!didnt'
p3638
I2
sS'!pleasing'
p3639
I2
sS'!berlin'
p3640
I2
sS'!twittermessage'
p3641
I1
sS'!pretend'
p3642
I6
sS'!brilliant'
p3643
I2
sS'!after'
p3644
I7
sS'!make'
p3645
I628
sS'!obviously'
p3646
I1
sS'!takinme'
p3647
I1
sS'!monkey'
p3648
I1
sS'!savour'
p3649
I1
sS'!functioning'
p3650
I4
sS'!premiership'
p3651
I1
sS'!fyt'
p3652
I1
sS'!family'
p3653
I2
sS'!than'
p3654
I1
sS'!please'
p3655
I13
sS'!chrishasboobs'
p3656
I1
sS'!religious'
p3657
I2
sS'!apple'
p3658
I4
sS'!thru'
p3659
I1
sS'!apply'
p3660
I8
sS'!good'
p3661
I979
sS'!spicy'
p3662
I1
sS'!gooo'
p3663
I2
sS'!connecting'
p3664
I7
sS'!situations'
p3665
I1
sS'!sporting'
p3666
I1
sS'!sence'
p3667
I1
sS'!adoring'
p3668
I1
sS'!claimed'
p3669
I1
sS'!hirin'
p3670
I1
sS'!everyones'
p3671
I1
sS'!promise'
p3672
I9
sS'!yr'
p3673
I1
sS'!two'
p3674
I2
sS'!likeing'
p3675
I3
sS'!wrong'
p3676
I7
sS'!supportet'
p3677
I1
sS'!download'
p3678
I66
sS'!select'
p3679
I3
sS'!listed'
p3680
I9
sS'!finsh'
p3681
I1
sS'!quottheirsquot'
p3682
I1
sS'!wined'
p3683
I2
sS'!disagree'
p3684
I2
sS'!nem'
p3685
I1
sS'!motivated'
p3686
I10
sS'!unlimited'
p3687
I1
sS'!delivering'
p3688
I1
sS'!new'
p3689
I5
sS'!marking'
p3690
I1
sS'!tollerate'
p3691
I2
sS'!pulling'
p3692
I2
sS'!came'
p3693
I2
sS'!lols'
p3694
I1
sS'!george'
p3695
I2
sS'!record'
p3696
I11
sS'!hated'
p3697
I2
sS'!setup'
p3698
I1
sS'!ignoring'
p3699
I13
sS'!crank'
p3700
I1
sS'!collect'
p3701
I2
sS'!httpmylocme2bpr'
p3702
I1
sS'!off'
p3703
I19
sS'!escape'
p3704
I8
sS'!hater'
p3705
I1
sS'!dive'
p3706
I1
sS'!accessable'
p3707
I1
sS'!selling'
p3708
I4
sS'!thundering'
p3709
I1
sS'!swineflu'
p3710
I2
sS'!seaaus'
p3711
I1
sS'!eatable'
p3712
I1
sS'!ocean'
p3713
I1
sS'!fixable'
p3714
I1
sS'!givin'
p3715
I2
sS'!photoshop'
p3716
I2
sS'!squeeze'
p3717
I2
sS'!messy'
p3718
I1
sS'!safe'
p3719
I7
sS'!go'
p3720
I1519
sS'!mms'
p3721
I3
sS'!gl'
p3722
I1
sS'!gg'
p3723
I2
sS'!gd'
p3724
I6
sS'!mentioning'
p3725
I2
sS'!attracting'
p3726
I1
sS'!functionality'
p3727
I2
sS'!center'
p3728
I1
sS'!camp'
p3729
I2
sS'!goodhmm'
p3730
I1
sS'!outshine'
p3731
I1
sS'!bday'
p3732
I1
sS'!pizza'
p3733
I1
sS'!painful'
p3734
I1
sS'!lite'
p3735
I1
sS'!unntil'
p3736
I1
sS'!bee'
p3737
I3
sS'!follow'
p3738
I82
sS'!ben'
p3739
I1
sS'!disappointing'
p3740
I1
sS'!djing'
p3741
I1
sS'!indicative'
p3742
I1
sS'!delicate'
p3743
I1
sS'!fcking'
p3744
I1
sS'!leto'
p3745
I2
sS'!transverse'
p3746
I1
sS'!following'
p3747
I249
sS'!knoow'
p3748
I1
sS'!trench'
p3749
I1
sS'!sleepits'
p3750
I1
sS'!vite'
p3751
I1
sS'!evolute'
p3752
I1
sS'!continuing'
p3753
I1
sS'!warm'
p3754
I12
sS'!sunbathing'
p3755
I1
sS'!videos'
p3756
I1
sS'!horny'
p3757
I2
sS'!gross'
p3758
I3
sS'!sounding'
p3759
I1
sS'!agitate'
p3760
I1
sS'!tackle'
p3761
I1
sS'!exhausted'
p3762
I1
sS'!confiscate'
p3763
I1
sS'!burn'
p3764
I4
sS'!editing'
p3765
I1
sS'!prettybut'
p3766
I1
sS'!shout'
p3767
I4
sS'!fomous'
p3768
I1
sS'!amp'
p3769
I7
sS'!tired'
p3770
I96
sS'!published'
p3771
I2
sS'!iclan'
p3772
I1
sS'!feliciaday'
p3773
I1
sS'!magpie'
p3774
I1
sS'!mad'
p3775
I30
sS'!blve'
p3776
I1
sS'!gettinne'
p3777
I1
sS'!drift'
p3778
I1
sS'!love'
p3779
I23
sS'!entertaining'
p3780
I2
sS'!fiddle'
p3781
I1
sS'!remeber'
p3782
I2
sS'!furgetting'
p3783
I1
sS'!fold'
p3784
I1
sS'!humming'
p3785
I1
sS'!foll'
p3786
I1
sS'!listend'
p3787
I1
sS'!kissn'
p3788
I1
sS'!price'
p3789
I1
sS'!obtain'
p3790
I1
sS'!filtering'
p3791
I1
sS'!mexican'
p3792
I1
sS'!struggling'
p3793
I1
sS'!unique'
p3794
I1
sS'!deliver'
p3795
I5
sS'!xoxo'
p3796
I1
sS'!nxt'
p3797
I1
sS'!tweetin'
p3798
I4
sS'!bandra'
p3799
I1
sS'!memrize'
p3800
I1
sS'!mention'
p3801
I7
sS'!canoe'
p3802
I2
sS'!leveling'
p3803
I1
sS'!relive'
p3804
I1
sS'!pleasant'
p3805
I11
sS'!ironic'
p3806
I1
sS'!djs'
p3807
I1
sS'!eating'
p3808
I46
sS'!whine'
p3809
I2
sS'!push'
p3810
I2
sS'!copyright'
p3811
I1
sS'!pursuing'
p3812
I1
sS'!elbipoppa'
p3813
I1
sS'!from'
p3814
I59
sS'!block'
p3815
I9
sS'!wembally'
p3816
I1
sS'!thinkpause'
p3817
I1
sS'!ranking'
p3818
I1
sS'!congratulate'
p3819
I1
sS'!playin'
p3820
I2
sS'!authenticate'
p3821
I1
sS'!complained'
p3822
I1
sS'!thursday'
p3823
I4
sS'!fucking'
p3824
I25
sS'!survive'
p3825
I10
sS'!mocking'
p3826
I1
sS'!sleepp'
p3827
I1
sS'!brave'
p3828
I2
sS'!listing'
p3829
I1
sS'!sleepy'
p3830
I49
sS'!dvd'
p3831
I1
sS'!hehe'
p3832
I1
sS'!truncate'
p3833
I1
sS'!suit'
p3834
I3
sS'!sleepe'
p3835
I1
sS'!sleepi'
p3836
I4
sS'!cricket'
p3837
I1
sS'!sleepn'
p3838
I1
sS'!hve'
p3839
I1
sS'!vegan'
p3840
I1
sS'!sneer'
p3841
I1
sS'!postin'
p3842
I1
sS'!delay'
p3843
I1
sS'!museum'
p3844
I1
sS'!thought'
p3845
I1
sS'!lfc'
p3846
I1
sS'!naked'
p3847
I3
sS'!bookmark'
p3848
I1
sS'!crappy'
p3849
I2
sS'!overly'
p3850
I5
sS'!words'
p3851
I1
sS'!bounce'
p3852
I1
sS'!considering'
p3853
I1
sS'!positive'
p3854
I1
sS'!kewl'
p3855
I2
sS'!donate'
p3856
I5
sS'!cuteycutey'
p3857
I1
sS'!gona'
p3858
I6
sS'!planned'
p3859
I2
sS'!anytime'
p3860
I5
sS'!substantial'
p3861
I1
sS'!fuck'
p3862
I7
sS'!yall'
p3863
I3
sS'!spam'
p3864
I4
sS'!comeback'
p3865
I1
sS'!columbus'
p3866
I1
sS'!organize'
p3867
I1
sS'!laughin'
p3868
I1
sS'!fathers'
p3869
I3
sS'!considermyself'
p3870
I1
sS'!buffer'
p3871
I3
sS'!chubb'
p3872
I1
sS'!french'
p3873
I2
sS'!baket'
p3874
I1
sS'!rally'
p3875
I1
sS'!food'
p3876
I4
sS'!dancing'
p3877
I4
sS'!responded'
p3878
I1
sS'!brissy'
p3879
I1
sS'!end'
p3880
I35
sS'!probably'
p3881
I3
sS'!research'
p3882
I1
sS'!twentyfour'
p3883
I1
sS'!file'
p3884
I1
sS'!detroit'
p3885
I2
sS'!kickin'
p3886
I1
sS'!quotsingsquot'
p3887
I1
sS'!credit'
p3888
I2
sS'!believe'
p3889
I1834
sS'!hapy'
p3890
I1
sS'!ine'
p3891
I1
sS'!equal'
p3892
I5
sS'!inc'
p3893
I1
sS'!alive'
p3894
I1
sS'!wishful'
p3895
I1
sS'!drivin'
p3896
I1
sS'!eight'
p3897
I1
sS'!dedicate'
p3898
I1
sS'!coffee'
p3899
I1
sS'!efficient'
p3900
I2
sS'!709'
p3901
I1
sS'!julicutijd'
p3902
I1
sS'!shinee'
p3903
I1
sS'!portsmouth'
p3904
I1
sS'!transparent'
p3905
I1
sS'!yippee'
p3906
I1
sS'!released'
p3907
I13
sS'!quoteveryonequot'
p3908
I1
sS'!negatively'
p3909
I1
sS'!boston'
p3910
I1
sS'!avin'
p3911
I1
sS'!buffy'
p3912
I2
sS'!adopted'
p3913
I2
sS'!waking'
p3914
I6
sS'!facebook'
p3915
I3
sS'!operate'
p3916
I2
sS'!financially'
p3917
I1
sS'!marketing'
p3918
I1
sS'!shanghai'
p3919
I1
sS'!akhaf'
p3920
I1
sS'!sunburnt'
p3921
I1
sS'!ff'
p3922
I2
sS'!mbp'
p3923
I1
sS'!succumb'
p3924
I2
sS'!fb'
p3925
I3
sS'!ladylike'
p3926
I1
sS'!share'
p3927
I22
sS'!untill'
p3928
I1
sS'!cydia'
p3929
I1
sS'!badbad'
p3930
I1
sS'!physically'
p3931
I8
sS'!rr'
p3932
I1
sS'!brake'
p3933
I2
sS'!elieve'
p3934
I1
sS'!cocky'
p3935
I1
sS'!shinning'
p3936
I1
sS'!disappear'
p3937
I2
sS'!smoke'
p3938
I9
sS'!tokio'
p3939
I1
sS'!avaiable'
p3940
I1
sS'!monsoon'
p3941
I1
sS'!payday'
p3942
I1
sS'!hired'
p3943
I1
sS'!started'
p3944
I10
sS'!actting'
p3945
I1
sS'!tennant'
p3946
I1
sS'!kelly'
p3947
I2
sS'!crap'
p3948
I3
sS'!sneezing'
p3949
I1
sS'!behaving'
p3950
I6
sS'!exceted'
p3951
I1
sS'!per'
p3952
I1
sS'!umm'
p3953
I1
sS'!yours'
p3954
I10
sS'!silkscreen'
p3955
I1
sS'!dishonor'
p3956
I1
sS'!cloverleaf'
p3957
I1
sS'!signing'
p3958
I3
sS'!youre'
p3959
I6
sS'!ells'
p3960
I1
sS'!pee'
p3961
I1
sS'!providing'
p3962
I1
sS'!personal'
p3963
I2
sS'!steering'
p3964
I1
sS'!wrapping'
p3965
I1
sS'!got'
p3966
I62
sS'!epic'
p3967
I1
sS'!welcome'
p3968
I1
sS'!stand'
p3969
I166
sS'!studying'
p3970
I12
sS'!speaking'
p3971
I4
sS'!spamming'
p3972
I1
sS'!fairr'
p3973
I2
sS'!sexy'
p3974
I7
sS'!faire'
p3975
I1
sS'!prove'
p3976
I3
sS'!fairi'
p3977
I1
sS'!brushed'
p3978
I1
sS'!near'
p3979
I20
sS'!develop'
p3980
I1
sS'!twins'
p3981
I1
sS'!sharapova'
p3982
I1
sS'!bitchy'
p3983
I2
sS'!pride'
p3984
I1
sS'!room'
p3985
I1
sS'!openquot'
p3986
I1
sS'!parking'
p3987
I1
sS'!submitt'
p3988
I1
sS'!shift'
p3989
I5
sS'!plotted'
p3990
I1
sS'!fattand'
p3991
I1
sS'!trinity'
p3992
I1
sS'!sat'
p3993
I3
sS'!recopmmend'
p3994
I1
sS'!thanks'
p3995
I6
sS'!request'
p3996
I3
sS'!helpshe'
p3997
I1
sS'!sad'
p3998
I24
sS'!witnessing'
p3999
I1
sS'!has'
p4000
I7
sS'!sam'
p4001
I1
sS'!canccel'
p4002
I1
sS'!atalking'
p4003
I1
sS'!bout'
p4004
I3
sS'!peaches'
p4005
I1
sS'!clocked'
p4006
I1
sS'!succeeding'
p4007
I3
sS'!flowers'
p4008
I1
sS'!goodd'
p4009
I1
sS'!chavs'
p4010
I1
sS'!goodn'
p4011
I1
sS'!nudge'
p4012
I1
sS'!canceling'
p4013
I1
sS'!cuzza'
p4014
I1
sS'!straighten'
p4015
I3
sS'!unsee'
p4016
I1
sS'!keith'
p4017
I1
sS'!paralyzed'
p4018
I1
sS'!pool'
p4019
I1
sS'!poor'
p4020
I5
sS'!poop'
p4021
I1
sS'!successfully'
p4022
I2
sS'!poot'
p4023
I1
sS'!impressing'
p4024
I1
sS'!quoti'
p4025
I1
sS'!real'
p4026
I32
sS'!read'
p4027
I133
sS'!nobody'
p4028
I1
sS'!fashionshow'
p4029
I1
sS'!recording'
p4030
I3
sS'!surprise'
p4031
I1
sS'!hospital'
p4032
I1
sS'!international'
p4033
I1
sS'!es'
p4034
I1
sS'!bear'
p4035
I20
sS'!dudette'
p4036
I1
sS'!nasti'
p4037
I1
sS'!ez'
p4038
I1
sS'!invisible'
p4039
I2
sS'!h1n1'
p4040
I4
sS'!defined'
p4041
I1
sS'!gym'
p4042
I2
sS'!workno'
p4043
I1
sS'!allow'
p4044
I48
sS'!contented'
p4045
I1
sS'!bcuz'
p4046
I1
sS'!awesome'
p4047
I6
sS'!womp'
p4048
I1
sS'!live'
p4049
I71
sS'!nothing'
p4050
I1
sS'!e3'
p4051
I1
sS'!watering'
p4052
I2
sS'!reported'
p4053
I1
sS'!stroll'
p4054
I1
sS'!eric'
p4055
I1
sS'!designed'
p4056
I2
sS'!outside'
p4057
I7
sS'!broke'
p4058
I4
sS'!speed'
p4059
I3
sS'!intentional'
p4060
I1
sS'!memorise'
p4061
I1
sS'!swingers'
p4062
I1
sS'!male'
p4063
I1
sS'!randomly'
p4064
I1
sS'!convenient'
p4065
I2
sS'!adopting'
p4066
I1
sS'!yop'
p4067
I1
sS'!cleveland'
p4068
I1
sS'!urs'
p4069
I2
sS'!sated'
p4070
I1
sS'!shown'
p4071
I8
sS'!decode'
p4072
I1
sS'!watchread'
p4073
I1
sS'!packed'
p4074
I4
sS'!shows'
p4075
I1
sS'!shocked'
p4076
I1
sS'!text'
p4077
I53
sS'!super'
p4078
I8
sS'!aiming'
p4079
I2
sS'!havin'
p4080
I10
sS'!fuckin'
p4081
I5
sS'!patterns'
p4082
I1
sS'!disturbing'
p4083
I1
sS'!coventrys'
p4084
I1
sS'!esp'
p4085
I1
sS'!shopping'
p4086
I3
sS'!realizing'
p4087
I3
sS'!jemi'
p4088
I1
sS'!beein'
p4089
I1
sS'!solved'
p4090
I1
sS'!multitask'
p4091
I3
sS'!receivi'
p4092
I1
sS'!avaliable'
p4093
I3
sS'!receive'
p4094
I24
sS'!anymore'
p4095
I73
sS'!separate'
p4096
I2
sS'!ghetto'
p4097
I1
sS'!believ'
p4098
I3
sS'!schedule'
p4099
I1
sS'!harvest'
p4100
I1
sS'!feeding'
p4101
I3
sS'!stored'
p4102
I1
sS'!concertrate'
p4103
I1
sS'!remote'
p4104
I1
sS'!belief'
p4105
I1
sS'!maybe'
p4106
I8
sS'!speeding'
p4107
I1
sS'!direct'
p4108
I21
sS'!still'
p4109
I22
sS'!screencap'
p4110
I1
sS'!reschedule'
p4111
I1
sS'!sprout'
p4112
I1
sS'!tuesday'
p4113
I1
sS'!inthe'
p4114
I2
sS'!addicted'
p4115
I3
sS'!karunanidhis'
p4116
I1
sS'!eligible'
p4117
I23
sS'!fading'
p4118
I1
sS'!restaurants'
p4119
I1
sS'!juggle'
p4120
I1
sS'!xxx'
p4121
I1
sS'!aussie'
p4122
I1
sS'!mutual'
p4123
I1
sS'!marching'
p4124
I1
sS'!worse'
p4125
I7
sS'!while'
p4126
I2
sS'!getting'
p4127
I360
sS'!beleev'
p4128
I1
sS'!suggest'
p4129
I3
sS'!emailing'
p4130
I1
sS'!adding'
p4131
I3
sS'!faair'
p4132
I1
sS'!restart'
p4133
I3
sS'!uplode'
p4134
I1
sS'!hollywood'
p4135
I1
sS'!cheer'
p4136
I6
sS'!demi'
p4137
I2
sS'!showin'
p4138
I4
sS'!associatin'
p4139
I1
sS'!subscribe'
p4140
I3
sS'!entertain'
p4141
I1
sS'!tring'
p4142
I1
sS'!mentally'
p4143
I1
sS'!musicsince'
p4144
I1
sS'!hypochondriac'
p4145
I1
sS'!donnie'
p4146
I1
sS'!crunch'
p4147
I1
sS'!infect'
p4148
I1
sS'!flexible'
p4149
I1
sS'!nckwtrs'
p4150
I1
sS'!minimize'
p4151
I4
sS'!quoturequot'
p4152
I1
sS'!stefans'
p4153
I1
sS'!down'
p4154
I11
sS'!streaming'
p4155
I1
sS'!eatin'
p4156
I2
sS'!tempting'
p4157
I1
sS'!immediately'
p4158
I1
sS'!maths'
p4159
I1
sS'!james'
p4160
I2
sS'!comfirmed'
p4161
I1
sS'!eatit'
p4162
I1
sS'!daisy'
p4163
I1
sS'!chose'
p4164
I1
sS'!graduating'
p4165
I3
sS'!thrill'
p4166
I1
sS'!rollin'
p4167
I1
sS'!invovling'
p4168
I1
sS'!out'
p4169
I89
sS'!bummer'
p4170
I2
sS'!ffunction'
p4171
I1
sS'!realeased'
p4172
I1
sS'!sadness'
p4173
I1
sS'!comb'
p4174
I1
sS'!mess'
p4175
I2
sS'!encoded'
p4176
I1
sS'!feed'
p4177
I11
sS'!1959'
p4178
I1
sS'!mesh'
p4179
I2
sS'!feel'
p4180
I173
sS'!yes'
p4181
I1
sS'!heard'
p4182
I36
sS'!documentary'
p4183
I1
sS'!fulfill'
p4184
I2
sS'!smoking'
p4185
I4
sS'!anyway'
p4186
I6
sS'!finishing'
p4187
I3
sS'!supporting'
p4188
I9
sS'!usual'
p4189
I1
sS'!fairrr'
p4190
I1
sS'!exacerbating'
p4191
I1
sS'!hart'
p4192
I1
sS'!attempt'
p4193
I2
sS'!nba'
p4194
I1
sS'!ily'
p4195
I1
sS'!locking'
p4196
I1
sS'!clone'
p4197
I1
sS'!videoing'
p4198
I1
sS'!rendering'
p4199
I2
sS'!angry'
p4200
I3
sS'!104\xc3\xa2\xe2\x80\x9e\xe2\x80\xb0'
p4201
I1
sS'!hard'
p4202
I7
sS'!advisable'
p4203
I1
sS'!politically'
p4204
I1
sS'!iphone'
p4205
I3
sS'!ill'
p4206
I38
sS'!reallyy'
p4207
I2
sS'!trippin'
p4208
I2
sS'!placed'
p4209
I1
sS'!more'
p4210
I20
sS'!ridden'
p4211
I1
sS'!havnt'
p4212
I1
sS'!email'
p4213
I8
sS'!typo'
p4214
I2
sS'!badd'
p4215
I1
sS'!workquot'
p4216
I1
sS'!defending'
p4217
I1
sS'!video'
p4218
I2
sS'!pause'
p4219
I1
sS'!fallin'
p4220
I1
sS'!cuteness'
p4221
I1
sS'!jamal'
p4222
I1
sS'!drop'
p4223
I9
sS'!promised'
p4224
I1
sS'!until'
p4225
I54
sS'!scared'
p4226
I4
sS'!untie'
p4227
I1
sS'!rescue'
p4228
I1
sS'!matured'
p4229
I1
sS'!chair'
p4230
I1
sS'!ballin'
p4231
I1
sS'!total'
p4232
I1
sS'!slack'
p4233
I1
sS'!cassual'
p4234
I1
sS'!dw'
p4235
I1
sS'!dp'
p4236
I1
sS'!refer'
p4237
I1
sS'!brought'
p4238
I1
sS'!dd'
p4239
I1
sS'!de'
p4240
I1
sS'!da'
p4241
I2
sS'!do'
p4242
I631
sS'!dl'
p4243
I3
sS'!dm'
p4244
I109
sS'!dj'
p4245
I1
sS'!surgery'
p4246
I2
sS'!worry'
p4247
I7
sS'!3v3n'
p4248
I1
sS'!wagon'
p4249
I1
sS'!airing'
p4250
I5
sS'!skyping'
p4251
I1
sS'!cfm'
p4252
I1
sS'!force'
p4253
I6
sS'!gwtting'
p4254
I1
sS'!raw'
p4255
I1
sS'!nbc'
p4256
I1
sS'!102'
p4257
I1
sS'!connect'
p4258
I57
sS'!100'
p4259
I32
sS'!view'
p4260
I42
sS'!properly'
p4261
I2
sS'!gws7'
p4262
I2
sS'!polite'
p4263
I1
sS'!myspace'
p4264
I2
sS'!australia'
p4265
I2
sS'!conceided'
p4266
I1
sS'!listen'
p4267
I105
sS'!gonna'
p4268
I434
sS'!cheated'
p4269
I2
sS'!seems'
p4270
I3
sS'!crop'
p4271
I1
sS'!successful'
p4272
I3
sS'!forgetting'
p4273
I1
sS'!varchar'
p4274
I1
sS'!ahh'
p4275
I1
sS'!singplay'
p4276
I1
sS'!10x'
p4277
I1
sS'!use'
p4278
I183
sS'!askn'
p4279
I1
sS'!involved'
p4280
I1
sS'!fun'
p4281
I348
sS'!challenging'
p4282
I2
sS'!hearing'
p4283
I7
sS'!teach'
p4284
I7
sS'!fux'
p4285
I1
sS'!arrange'
p4286
I1
sS'!wright'
p4287
I1
sS'!smug'
p4288
I1
sS'!fut'
p4289
I1
sS'!femme'
p4290
I1
sS'!when'
p4291
I55
sS'!eliminate'
p4292
I1
sS'!gtting'
p4293
I1
sS'!redownload'
p4294
I1
sS'!realise'
p4295
I5
sS'!invent'
p4296
I1
sS'!th0'
p4297
I1
sS'!clever'
p4298
I2
sS'!roland'
p4299
I1
sS'!jus'
p4300
I5
sS'!visiting'
p4301
I6
sS'!smarter'
p4302
I1
sS'!sorry'
p4303
I29
sS'!fool'
p4304
I1
sS'!loads'
p4305
I1
sS'!stomach'
p4306
I4
sS'!enabled'
p4307
I2
sS'!blow'
p4308
I4
sS'!install'
p4309
I39
sS'!unplug'
p4310
I1
sS'!red'
p4311
I3
sS'!rea'
p4312
I1
sS'!ren'
p4313
I1
sS'!waittt'
p4314
I1
sS'!rem'
p4315
I1
sS'!flickr'
p4316
I1
sS'!chino'
p4317
I1
sS'!tshirt'
p4318
I1
sS'!blocked'
p4319
I2
sS'!mostly'
p4320
I1
sS'!rez'
p4321
I1
sS'!reorg'
p4322
I1
sS'!refreshed'
p4323
I2
sS'!easy'
p4324
I46
sS'!scottsdale'
p4325
I1
sS'!hahaha'
p4326
I3
sS'!excitied'
p4327
I1
sS'!bleeding'
p4328
I1
sS'!emo'
p4329
I3
sS'!secretary'
p4330
I1
sS'!nat'
p4331
I1
sS'!cheating'
p4332
I5
sS'!playing'
p4333
I72
sS'!nap'
p4334
I12
sS'!shifting'
p4335
I3
sS'!featured'
p4336
I1
sS'!140'
p4337
I1
sS'!bowl'
p4338
I2
sS'!ima'
p4339
I3
sS'!replybut'
p4340
I1
sS'!nah'
p4341
I1
sS'!dollhouse'
p4342
I1
sS'!shredded'
p4343
I1
sS'!schizophrenia'
p4344
I1
sS'!perfect'
p4345
I14
sS'!beat'
p4346
I28
sS'!return'
p4347
I13
sS'!sayin'
p4348
I3
sS'!workout'
p4349
I3
sS'!stopin'
p4350
I1
sS'!marie'
p4351
I1
sS'!feellin'
p4352
I1
sS'!maria'
p4353
I1
sS'!covering'
p4354
I1
sS'!foresee'
p4355
I1
sS'!kito'
p4356
I1
sS'!asian'
p4357
I2
sS'!listened'
p4358
I1
sS'!stalk'
p4359
I5
sS'!gossip'
p4360
I1
sS'!cable'
p4361
I1
sS'!audition'
p4362
I2
sS'!vwell'
p4363
I1
sS'!intend'
p4364
I1
sS'!exited'
p4365
I1
sS'!man'
p4366
I4
sS'!snuggle'
p4367
I1
sS'!message'
p4368
I9
sS'!fake'
p4369
I4
sS'!available'
p4370
I155
sS'!channel'
p4371
I1
sS'!nero'
p4372
I1
sS'!loving'
p4373
I17
sS'!may'
p4374
I3
sS'!recommend'
p4375
I8
sS'!mush'
p4376
I1
sS'!snow'
p4377
I1
sS'!yourself'
p4378
I1
sS'!bounded'
p4379
I1
sS'!must'
p4380
I3
sS'!answered'
p4381
I1
sS'!speck'
p4382
I1
sS'!leaaave'
p4383
I1
sS'!2night'
p4384
I1
sS'!jaws'
p4385
I2
sS'!skye'
p4386
I1
sS'!shed'
p4387
I2
sS'!big'
p4388
I15
sS'!bid'
p4389
I2
sS'!premiere'
p4390
I1
sS'!inspectors'
p4391
I2
sS'!verify'
p4392
I2
sS'!flip'
p4393
I1
sS'!ignore'
p4394
I2
sS'!budge'
p4395
I5
sS'!canberra'
p4396
I2
s.