(dp0
S'!lile'
p1
I1
sS'!rerestore'
p2
I1
sS'!denying'
p3
I1
sS'!cleared'
p4
I1
sS'!skinny'
p5
I3
sS'!conclude'
p6
I1
sS'!follower'
p7
I2
sS'!many'
p8
I29
sS'!followed'
p9
I2
sS'!fall'
p10
I29
sS'!knowed'
p11
I1
sS'!mommy'
p12
I1
sS'!count'
p13
I9
sS'!cuz'
p14
I5
sS'!tanner'
p15
I1
sS'!sadistic'
p16
I1
sS'!protect'
p17
I1
sS'!engaging'
p18
I1
sS'!directly'
p19
I2
sS'!cut'
p20
I8
sS'!coool'
p21
I1
sS'!tanned'
p22
I1
sS'!shirk'
p23
I1
sS'!ment'
p24
I2
sS'!able'
p25
I19
sS'!rafas'
p26
I1
sS'!spaghetti'
p27
I1
sS'!burning'
p28
I1
sS'!get'
p29
I458
sS'!compete'
p30
I4
sS'!unfortunate'
p31
I1
sS'!dull'
p32
I1
sS'!bball'
p33
I1
sS'!tworthy'
p34
I1
sS'!shield'
p35
I1
sS'!married'
p36
I3
sS'!markets'
p37
I1
sS'!pissing'
p38
I1
sS'!infecced'
p39
I1
sS'!sallu'
p40
I1
sS'!110'
p41
I1
sS'!worrying'
p42
I4
sS'!obscure'
p43
I1
sS'!going'
p44
I302
sS'!sally'
p45
I1
sS'!full'
p46
I2
sS'!breathe'
p47
I6
sS'!waisting'
p48
I2
sS'!chinatown'
p49
I1
sS'!fiction'
p50
I1
sS'!chav'
p51
I1
sS'!snapping'
p52
I1
sS'!chat'
p53
I2
sS'!char'
p54
I1
sS'!lord'
p55
I1
sS'!knowing'
p56
I25
sS'!waitwatch'
p57
I1
sS'!those'
p58
I7
sS'!texting'
p59
I3
sS'!goodbye'
p60
I1
sS'!reserved'
p61
I1
sS'!tlot'
p62
I1
sS'!tempted'
p63
I2
sS'!grasp'
p64
I1
sS'!confused'
p65
I4
sS'!feldkirch'
p66
I1
sS'!cater'
p67
I1
sS'!dial'
p68
I1
sS'!actually'
p69
I35
sS'!try'
p70
I24
sS'!dlode'
p71
I1
sS'!well'
p72
I25
sS'!unwatchable'
p73
I1
sS'!above'
p74
I3
sS'!rmbr'
p75
I1
sS'!luxuries'
p76
I1
sS'!lily'
p77
I1
sS'!normaldocs'
p78
I1
sS'!auto'
p79
I3
sS'!raised'
p80
I2
sS'!attachment'
p81
I1
sS'!deliberately'
p82
I1
sS'!stuck'
p83
I6
sS'!messaged'
p84
I1
sS'!elaborate'
p85
I1
sS'!hovered'
p86
I1
sS'!piss'
p87
I1
sS'!age'
p88
I2
sS'!keep'
p89
I54
sS'!shipping'
p90
I1
sS'!knock'
p91
I2
sS'!usually'
p92
I17
sS'!dating'
p93
I2
sS'!tell'
p94
I132
sS'!replying'
p95
I6
sS'!spoiling'
p96
I2
sS'!twitpic'
p97
I2
sS'!mind'
p98
I29
sS'!mine'
p99
I32
sS'!compute'
p100
I1
sS'!keen'
p101
I5
sS'!allowed'
p102
I40
sS'!fucked'
p103
I1
sS'!possibly'
p104
I5
sS'!tall'
p105
I1
sS'!truly'
p106
I1
sS'!talk'
p107
I27
sS'!appreciated'
p108
I1
sS'!hungover'
p109
I6
sS'!negate'
p110
I1
sS'!possible'
p111
I15
sS'!removing'
p112
I1
sS'!before'
p113
I9
sS'!36'
p114
I1
sS'!dry'
p115
I1
sS'!potluck'
p116
I1
sS'!copy'
p117
I2
sS'!generally'
p118
I1
sS'!eaten'
p119
I4
sS'!cope'
p120
I5
sS'!their'
p121
I4
sS'!allergic'
p122
I1
sS'!being'
p123
I127
sS'!racist'
p124
I4
sS'!cute'
p125
I6
sS'!trade'
p126
I2
sS'!ruling'
p127
I1
sS'!gtlt'
p128
I1
sS'!accept'
p129
I7
sS'!boiling'
p130
I1
sS'!check'
p131
I7
sS'!resolve'
p132
I2
sS'!flooding'
p133
I1
sS'!respnd'
p134
I1
sS'!sneak'
p135
I2
sS'!uglier'
p136
I1
sS'!porn'
p137
I1
sS'!venessa'
p138
I1
sS'!conservative'
p139
I2
sS'!guaranteed'
p140
I2
sS'!disappoint'
p141
I14
sS'!heave'
p142
I1
sS'!readwas'
p143
I1
sS'!hacked'
p144
I1
sS'!stupid'
p145
I14
sS'!surrounded'
p146
I1
sS'!behind'
p147
I2
sS'!handling'
p148
I1
sS'!jsut'
p149
I1
sS'!literally'
p150
I15
sS'!redirects'
p151
I1
sS'!onfront'
p152
I1
sS'!confuse'
p153
I1
sS'!uhoh'
p154
I1
sS'!useless'
p155
I1
sS'!judge'
p156
I9
sS'!completely'
p157
I13
sS'!affected'
p158
I1
sS'!willing'
p159
I1
sS'!ciggs'
p160
I1
sS'!officialy'
p161
I1
sS'!ilready'
p162
I1
sS'!aerial'
p163
I1
sS'!convert'
p164
I1
sS'!shoes'
p165
I1
sS'!upchucking'
p166
I1
sS'!cheap'
p167
I5
sS'!doesnt'
p168
I2
sS'!necessary'
p169
I7
sS'!cross'
p170
I1
sS'!thoughtful'
p171
I2
sS'!proud'
p172
I2
sS'!quotdonequot'
p173
I1
sS'!publishing'
p174
I1
sS'!attend'
p175
I4
sS'!lightning'
p176
I2
sS'!curdle'
p177
I1
sS'!quit'
p178
I5
sS'!placing'
p179
I1
sS'!comment'
p180
I8
sS'!bath'
p181
I1
sS'!wink'
p182
I1
sS'!wini'
p183
I1
sS'!social'
p184
I1
sS'!regret'
p185
I38
sS'!drunk'
p186
I19
sS'!to'
p187
I712
sS'!upset'
p188
I4
sS'!poop'
p189
I2
sS'!th'
p190
I1
sS'!propose'
p191
I1
sS'!tv'
p192
I1
sS'!shepherd'
p193
I1
sS'!tt'
p194
I2
sS'!permanent'
p195
I2
sS'!proper'
p196
I1
sS'!current'
p197
I1
sS'!tx'
p198
I1
sS'!reserve'
p199
I1
sS'!movinggg'
p200
I1
sS'!excited'
p201
I8
sS'!chernobyl'
p202
I1
sS'!realistic'
p203
I1
sS'!over'
p204
I29
sS'!competing'
p205
I1
sS'!city'
p206
I1
sS'!rewinding'
p207
I1
sS'!flood'
p208
I1
sS'!blonde'
p209
I2
sS'!complaint'
p210
I1
sS'!shower'
p211
I2
sS'!snow'
p212
I2
sS'!entitled'
p213
I1
sS'!sway'
p214
I1
sS'!decorating'
p215
I1
sS'!pronouncing'
p216
I1
sS'!swap'
p217
I1
sS'!discriminatory'
p218
I1
sS'!clean'
p219
I1
sS'!clear'
p220
I2
sS'!kami'
p221
I1
sS'!swope'
p222
I1
sS'!congratulations'
p223
I1
sS'!including'
p224
I8
sS'!nickk'
p225
I1
sS'!happier'
p226
I1
sS'!washing'
p227
I1
sS'!lettin'
p228
I1
sS'!deviantart'
p229
I1
sS'!grant'
p230
I1
sS'!exciting'
p231
I1
sS'!methanx'
p232
I1
sS'!badmouthing'
p233
I1
sS'!waot'
p234
I1
sS'!antisocial'
p235
I1
sS'!basking'
p236
I1
sS'!hilarious'
p237
I1
sS'!false'
p238
I1
sS'!smiling'
p239
I3
sS'!bothered'
p240
I5
sS'!spock'
p241
I1
sS'!flocking'
p242
I1
sS'!sydney'
p243
I1
sS'!spanish'
p244
I1
sS'!toronto'
p245
I1
sS'!lost'
p246
I11
sS'!forgotten'
p247
I4
sS'!guzzling'
p248
I1
sS'!fight'
p249
I8
sS'!lame'
p250
I13
sS'!opened'
p251
I1
sS'!legal'
p252
I1
sS'!lose'
p253
I15
sS'!depressing'
p254
I2
sS'!peanut'
p255
I1
sS'!cold'
p256
I9
sS'!shave'
p257
I1
sS'!hopefully'
p258
I1
sS'!lupus'
p259
I1
sS'!indexed'
p260
I1
sS'!engaged'
p261
I1
sS'!thtzu'
p262
I1
sS'!suprising'
p263
I2
sS'!appearing'
p264
I2
sS'!investing'
p265
I1
sS'!jz'
p266
I1
sS'!needing'
p267
I2
sS'!laughed'
p268
I1
sS'!quotdue'
p269
I1
sS'!such'
p270
I11
sS'!suck'
p271
I13
sS'!badjust'
p272
I1
sS'!better'
p273
I10
sS'!hesitate'
p274
I3
sS'!jk'
p275
I1
sS'!last'
p276
I27
sS'!patehtic'
p277
I1
sS'!quotspeaking'
p278
I1
sS'!jc'
p279
I1
sS'!puncture'
p280
I1
sS'!sugar'
p281
I1
sS'!focus'
p282
I6
sS'!tire'
p283
I1
sS'!volunteer'
p284
I2
sS'!add'
p285
I8
sS'!inactive'
p286
I1
sS'!chu'
p287
I1
sS'!chimps'
p288
I1
sS'!temi'
p289
I1
sS'!fashionable'
p290
I1
sS'!tinietempah'
p291
I1
sS'!blemished'
p292
I1
sS'!paint'
p293
I2
sS'!inches'
p294
I1
sS'!breathinglol'
p295
I1
sS'!reasonable'
p296
I1
sS'!hamburg'
p297
I1
sS'!cha'
p298
I1
sS'!disparaging'
p299
I1
sS'!written'
p300
I1
sS'!whattt'
p301
I1
sS'!shite'
p302
I1
sS'!express'
p303
I5
sS'!friends'
p304
I6
sS'!joining'
p305
I1
sS'!seeing'
p306
I24
sS'!wanit'
p307
I1
sS'!cleaning'
p308
I1
sS'!when'
p309
I14
sS'!dumb'
p310
I7
sS'!pressed'
p311
I1
sS'!overworking'
p312
I1
sS'!jelousim'
p313
I1
sS'!quotfeed'
p314
I1
sS'!cover'
p315
I1
sS'!rubbish'
p316
I1
sS'!fired'
p317
I3
sS'!fussed'
p318
I3
sS'!sooner'
p319
I1
sS'!currently'
p320
I1
sS'!load'
p321
I3
sS'!weirdmusician'
p322
I1
sS'!by'
p323
I24
sS'!steal'
p324
I6
sS'!recognise'
p325
I1
sS'!kidding'
p326
I11
sS'!enjoy'
p327
I16
sS'!jelous'
p328
I1
sS'!artists'
p329
I1
sS'!futbol'
p330
I1
sS'!painting'
p331
I2
sS'!uber'
p332
I3
sS'!endusers'
p333
I1
sS'!therehaha'
p334
I1
sS'!running'
p335
I7
sS'!looking'
p336
I54
sS'!gloating'
p337
I1
sS'!exhausted'
p338
I1
sS'!rockk'
p339
I1
sS'!top'
p340
I4
sS'!autotweets'
p341
I1
sS'!oprah'
p342
I1
sS'!kids'
p343
I3
sS'!collide'
p344
I1
sS'!naming'
p345
I1
sS'!tom'
p346
I3
sS'!world'
p347
I1
sS'!thinking'
p348
I8
sS'!crazy'
p349
I32
sS'!stinky'
p350
I1
sS'!recommended'
p351
I2
sS'!always'
p352
I49
sS'!whats'
p353
I6
sS'!wolverine'
p354
I1
sS'!previously'
p355
I1
sS'!aimed'
p356
I1
sS'!argue'
p357
I12
sS'!quotbehind'
p358
I1
sS'!curious'
p359
I2
sS'!dori'
p360
I1
sS'!defined'
p361
I1
sS'!amazing'
p362
I6
sS'!funny'
p363
I24
sS'!20'
p364
I3
sS'!unpardonable'
p365
I1
sS'!22'
p366
I1
sS'!because'
p367
I28
sS'!25'
p368
I2
sS'!26'
p369
I1
sS'!27'
p370
I1
sS'!moved'
p371
I2
sS'!drool'
p372
I1
sS'!refuse'
p373
I6
sS'!licensed'
p374
I1
sS'!till'
p375
I14
sS'!quotboom'
p376
I1
sS'!wsuch'
p377
I1
sS'!really'
p378
I429
sS'!moving'
p379
I10
sS'!swedish'
p380
I1
sS'!cocksure'
p381
I1
sS'!allow'
p382
I7
sS'!goodwas'
p383
I1
sS'!ieroit'
p384
I1
sS'!speak'
p385
I23
sS'!disappearing'
p386
I1
sS'!scrambled'
p387
I1
sS'!send'
p388
I30
sS'!ginger'
p389
I1
sS'!pity'
p390
I1
sS'!suspended'
p391
I1
sS'!tease'
p392
I1
sS'!tripping'
p393
I2
sS'!fettel'
p394
I1
sS'!breathing'
p395
I1
sS'!carry'
p396
I4
sS'!phones'
p397
I2
sS'!sweats'
p398
I1
sS'!alot'
p399
I10
sS'!watching'
p400
I38
sS'!abused'
p401
I1
sS'!publicly'
p402
I2
sS'!added'
p403
I1
sS'!sew'
p404
I1
sS'!dressed'
p405
I6
sS'!set'
p406
I3
sS'!taste'
p407
I4
sS'!much'
p408
I196
sS'!insomnia'
p409
I1
sS'!how'
p410
I20
sS'!hot'
p411
I13
sS'!skip'
p412
I3
sS'!see'
p413
I183
sS'!apologize'
p414
I1
sS'!fan'
p415
I2
sS'!tick'
p416
I1
sS'!log'
p417
I5
sS'!not'
p418
I18
sS'!now'
p419
I41
sS'!lol'
p420
I43
sS'!occur'
p421
I1
sS'!talkin'
p422
I2
sS'!noo'
p423
I1
sS'!low'
p424
I1
sS'!special'
p425
I2
sS'!lou'
p426
I1
sS'!noe'
p427
I1
sS'!fat'
p428
I12
sS'!far'
p429
I36
sS'!flippin'
p430
I1
sS'!muuch'
p431
I1
sS'!brilliant'
p432
I2
sS'!exactlyactually'
p433
I1
sS'!cost'
p434
I2
sS'!dirty'
p435
I3
sS'!notice'
p436
I4
sS'!global'
p437
I1
sS'!attached'
p438
I1
sS'!promise'
p439
I9
sS'!spotless'
p440
I1
sS'!doubleclick'
p441
I1
sS'!riskin'
p442
I1
sS'!suddeny'
p443
I1
sS'!post'
p444
I13
sS'!nambucomhelp'
p445
I1
sS'!dark'
p446
I1
sS'!poss'
p447
I1
sS'!happen'
p448
I26
sS'!stare'
p449
I2
sS'!dare'
p450
I2
sS'!scotch'
p451
I1
sS'!two'
p452
I3
sS'!club'
p453
I1
sS'!apparent'
p454
I1
sS'!soaking'
p455
I2
sS'!followfriday'
p456
I2
sS'!early'
p457
I3
sS'!grinding'
p458
I1
sS'!slip'
p459
I1
sS'!linger'
p460
I1
sS'!cook'
p461
I6
sS'!handsome'
p462
I1
sS'!stopped'
p463
I1
sS'!own'
p464
I2
sS'!revolutionary'
p465
I1
sS'!revising'
p466
I1
sS'!owe'
p467
I1
sS'!quitting'
p468
I1
sS'!faster'
p469
I1
sS'!eberyone'
p470
I1
sS'!had'
p471
I28
sS'!impressive'
p472
I1
sS'!promising'
p473
I2
sS'!logical'
p474
I1
sS'!eat'
p475
I41
sS'!prepared'
p476
I2
sS'!is'
p477
I6
sS'!boo'
p478
I2
sS'!im'
p479
I50
sS'!il'
p480
I1
sS'!nicolai'
p481
I1
sS'!in'
p482
I280
sS'!movequot'
p483
I1
sS'!swi'
p484
I1
sS'!id'
p485
I5
sS'!if'
p486
I36
sS'!tara'
p487
I1
sS'!ours'
p488
I4
sS'!espousing'
p489
I1
sS'!imagine'
p490
I53
sS'!sharing'
p491
I4
sS'!tori'
p492
I1
sS'!judgmental'
p493
I1
sS'!foo'
p494
I1
sS'!arround'
p495
I2
sS'!completley'
p496
I1
sS'!desktop'
p497
I1
sS'!represent'
p498
I2
sS'!for'
p499
I143
sS'!unless'
p500
I9
sS'!exhausting'
p501
I1
sS'!hago'
p502
I1
sS'!done'
p503
I33
sS'!built'
p504
I3
sS'!pitch'
p505
I1
sS'!spilling'
p506
I1
sS'!putting'
p507
I6
sS'!dont'
p508
I10
sS'!adakah'
p509
I1
sS'!even'
p510
I398
sS'!npcc'
p511
I1
sS'!start'
p512
I13
sS'!exaggerating'
p513
I1
sS'!gathering'
p514
I1
sS'!used'
p515
I35
sS'!line'
p516
I1
sS'!link'
p517
I3
sS'!included'
p518
I4
sS'!mfging'
p519
I1
sS'!neglect'
p520
I2
sS'!concerned'
p521
I2
sS'!killing'
p522
I2
sS'!bloody'
p523
I3
sS'!pick'
p524
I9
sS'!natural'
p525
I1
sS'!long'
p526
I67
sS'!holla'
p527
I2
sS'!calling'
p528
I4
sS'!ungover'
p529
I1
sS'!glad'
p530
I5
sS'!officially'
p531
I2
sS'!stealing'
p532
I3
sS'!foldwe'
p533
I1
sS'!meant'
p534
I18
sS'!becase'
p535
I1
sS'!guarantee'
p536
I6
sS'!slowing'
p537
I1
sS'!finished'
p538
I11
sS'!holliekoth1'
p539
I1
sS'!airport'
p540
I1
sS'!showing'
p541
I14
sS'!stressed'
p542
I1
sS'!place'
p543
I3
sS'!tryna'
p544
I4
sS'!weather'
p545
I1
sS'!allone'
p546
I1
sS'!formalities'
p547
I1
sS'!advocating'
p548
I2
sS'!want'
p549
I38
sS'!\xc3\x82\xc2\xb4'
p550
I1
sS'!confusing'
p551
I4
sS'!back'
p552
I7
sS'!strange'
p553
I2
sS'!absolutely'
p554
I1
sS'!decidetell'
p555
I1
sS'!sheens'
p556
I1
sS'!common'
p557
I1
sS'!feeling'
p558
I66
sS'!fine'
p559
I1
sS'!find'
p560
I127
sS'!fing'
p561
I1
sS'!illegal'
p562
I7
sS'!syncing'
p563
I1
sS'!quotsilkcharm'
p564
I1
sS'!furry'
p565
I1
sS'!dropping'
p566
I1
sS'!increase'
p567
I1
sS'!waaait'
p568
I1
sS'!burger'
p569
I1
sS'!explaine'
p570
I1
sS'!time'
p571
I5
sS'!worthy'
p572
I11
sS'!part'
p573
I13
sS'!mistaken'
p574
I14
sS'!seen'
p575
I58
sS'!seem'
p576
I54
sS'!him'
p577
I7
sS'!producing'
p578
I1
sS'!totally'
p579
I13
sS'!hope'
p580
I3
sS'!extremely'
p581
I1
sS'!shes'
p582
I5
sS'!feelin'
p583
I6
sS'!reboot'
p584
I1
sS'!cellys'
p585
I1
sS'!thaaat'
p586
I1
sS'!mistakes'
p587
I1
sS'!small'
p588
I2
sS'!disney'
p589
I1
sS'!asleep'
p590
I4
sS'!quotofficialquot'
p591
I1
sS'!hurting'
p592
I5
sS'!tend'
p593
I1
sS'!having'
p594
I91
sS'!image'
p595
I1
sS'!texted'
p596
I1
sS'!although'
p597
I1
sS'!lower'
p598
I1
sS'!modified'
p599
I1
sS'!vry'
p600
I1
sS'!blieve'
p601
I1
sS'!shining'
p602
I1
sS'!tasting'
p603
I1
sS'!excellent'
p604
I1
sS'!directed'
p605
I1
sS'!store'
p606
I1
sS'!cheatingg'
p607
I1
sS'!horrorish'
p608
I1
sS'!rain'
p609
I19
sS'!nokia'
p610
I1
sS'!offended'
p611
I8
sS'!15'
p612
I2
sS'!14'
p613
I1
sS'!17'
p614
I1
sS'!16'
p615
I1
sS'!10'
p616
I3
sS'!tweet'
p617
I30
sS'!12'
p618
I3
sS'!press'
p619
I4
sS'!have'
p620
I324
sS'!hook'
p621
I3
sS'!turned'
p622
I1
sS'!expect'
p623
I13
sS'!core'
p624
I1
sS'!country'
p625
I1
sS'!classed'
p626
I1
sS'!unlike'
p627
I1
sS'!humid'
p628
I2
sS'!beliebe'
p629
I1
sS'!sacrilege'
p630
I1
sS'!certan'
p631
I1
sS'!picky'
p632
I6
sS'!decades'
p633
I1
sS'!campbells'
p634
I1
sS'!deleted'
p635
I1
sS'!bite'
p636
I8
sS'!lemme'
p637
I3
sS'!convinced'
p638
I6
sS'!trus'
p639
I1
sS'!feedin'
p640
I1
sS'!veggies'
p641
I1
sS'!true'
p642
I40
sS'!gods'
p643
I1
sS'!things'
p644
I2
sS'!blood'
p645
I1
sS'!friend'
p646
I1
sS'!emoo'
p647
I1
sS'!1k'
p648
I1
sS'!walked'
p649
I1
sS'!addiction'
p650
I1
sS'!alone8'
p651
I1
sS'!creepy'
p652
I11
sS'!sxsw'
p653
I1
sS'!ital'
p654
I1
sS'!reveal'
p655
I2
sS'!unhappy'
p656
I1
sS'!performing'
p657
I1
sS'!claim'
p658
I2
sS'!pushing'
p659
I3
sS'!stopping'
p660
I6
sS'!bagyo'
p661
I1
sS'!firefox'
p662
I1
sS'!supersport'
p663
I1
sS'!list'
p664
I1
sS'!will'
p665
I6
sS'!logged'
p666
I1
sS'!snacking'
p667
I1
sS'!sneaky'
p668
I1
sS'!quotmans'
p669
I1
sS'!native'
p670
I1
sS'!nsy'
p671
I1
sS'!ive'
p672
I5
sS'!pimms'
p673
I1
sS'!haha'
p674
I17
sS'!hitting'
p675
I2
sS'!dood'
p676
I1
sS'!fear'
p677
I3
sS'!shure'
p678
I1
sS'!intuitive'
p679
I1
sS'!rlly'
p680
I1
sS'!writing'
p681
I7
sS'!respondinggoodnight'
p682
I1
sS'!india'
p683
I1
sS'!wanting'
p684
I13
sS'!indie'
p685
I1
sS'!bore'
p686
I3
sS'!ones'
p687
I2
sS'!born'
p688
I3
sS'!seenquot'
p689
I2
sS'!dumping'
p690
I1
sS'!square'
p691
I2
sS'!solely'
p692
I1
sS'!text'
p693
I9
sS'!tellshhh'
p694
I1
sS'!ride'
p695
I5
sS'!alll'
p696
I1
sS'!eh'
p697
I3
sS'!april'
p698
I2
sS'!highscholer'
p699
I1
sS'!popped'
p700
I1
sS'!southpaw'
p701
I1
sS'!waste'
p702
I7
sS'!much2do4u'
p703
I1
sS'!swine'
p704
I8
sS'!aging'
p705
I1
sS'!beautifully'
p706
I1
sS'!respect'
p707
I1
sS'!competitive'
p708
I1
sS'!this'
p709
I36
sS'!nicolewwebber'
p710
I1
sS'!throwing'
p711
I1
sS'!noob'
p712
I1
sS'!cbake75'
p713
I1
sS'!payin'
p714
I1
sS'!right\xc3\xa2\xe2\x82\xac\xc2\xa6'
p715
I1
sS'!altho'
p716
I1
sS'!noon'
p717
I1
sS'!work'
p718
I69
sS'!bother'
p719
I14
sS'!procedurals'
p720
I1
sS'!offensive'
p721
I1
sS'!uploaded'
p722
I1
sS'!h8'
p723
I1
sS'!quotruggedly'
p724
I1
sS'!listening'
p725
I14
sS'!jasper'
p726
I1
sS'!spend'
p727
I11
sS'!exactly'
p728
I38
sS'!end'
p729
I7
sS'!into'
p730
I36
sS'!resistant'
p731
I1
sS'!celia'
p732
I1
sS'!goodsex'
p733
I1
sS'!waiiitt'
p734
I1
sS'!borin'
p735
I1
sS'!chosen'
p736
I1
sS'!appear'
p737
I2
sS'!saying'
p738
I31
sS'!ha'
p739
I4
sS'!leavethe'
p740
I1
sS'!he'
p741
I16
sS'!annette'
p742
I1
sS'!hi'
p743
I3
sS'!surprise'
p744
I7
sS'!meltin'
p745
I1
sS'!dreading'
p746
I1
sS'!hv'
p747
I1
sS'!seehear'
p748
I1
sS'!jessica'
p749
I1
sS'!rocking'
p750
I1
sS'!maccas'
p751
I1
sS'!apprentice'
p752
I1
sS'!peeing'
p753
I1
sS'!anywhere'
p754
I1
sS'!secured'
p755
I1
sS'!pleased'
p756
I3
sS'!vain'
p757
I2
sS'!hating'
p758
I5
sS'!relationship'
p759
I1
sS'!amusedshe'
p760
I1
sS'!quottrade'
p761
I1
sS'!curse'
p762
I1
sS'!flock'
p763
I1
sS'!number'
p764
I1
sS'!abl'
p765
I1
sS'!sorryquot'
p766
I1
sS'!another'
p767
I5
sS'!stormy'
p768
I1
sS'!twiter'
p769
I1
sS'!hunk'
p770
I1
sS'!someone'
p771
I5
sS'!eyes'
p772
I1
sS'!abt'
p773
I1
sS'!imaginary'
p774
I2
sS'!foggy'
p775
I1
sS'!pinky'
p776
I1
sS'!quoting'
p777
I1
sS'!internet'
p778
I2
sS'!escaping'
p779
I2
sS'!visible'
p780
I4
sS'!borriing'
p781
I1
sS'!emo'
p782
I5
sS'!nice'
p783
I25
sS'!legally'
p784
I2
sS'!mass'
p785
I1
sS'!lucky'
p786
I3
sS'!russias'
p787
I1
sS'!blurry'
p788
I1
sS'!arrange'
p789
I1
sS'!chris'
p790
I3
sS'!called'
p791
I4
sS'!capitalization'
p792
I1
sS'!look'
p793
I22
sS'!luna'
p794
I1
sS'!satisifed'
p795
I1
sS'!changing'
p796
I7
sS'!face'
p797
I2
sS'!seein'
p798
I3
sS'!geology'
p799
I1
sS'!cyndaelle'
p800
I1
sS'!peckham'
p801
I1
sS'!obama'
p802
I1
sS'!grumps'
p803
I1
sS'!short'
p804
I2
sS'!compain'
p805
I1
sS'!manpris'
p806
I1
sS'!doubt'
p807
I4
sS'!misquoting'
p808
I1
sS'!horse'
p809
I2
sS'!grumpy'
p810
I2
sS'!asking'
p811
I6
sS'!silly'
p812
I4
sS'!burritos'
p813
I1
sS'!meet'
p814
I7
sS'!attach'
p815
I1
sS'!constructionnoise'
p816
I1
sS'!atm'
p817
I1
sS'!vice'
p818
I1
sS'!brian'
p819
I2
sS'!vote'
p820
I7
sS'!arbit'
p821
I1
sS'!official'
p822
I3
sS'!cheers'
p823
I1
sS'!ciara'
p824
I1
sS'!mequot'
p825
I1
sS'!alowed'
p826
I1
sS'!parallel'
p827
I2
sS'!kept'
p828
I1
sS'!what'
p829
I59
sS'!addicting'
p830
I1
sS'!raise'
p831
I1
sS'!arj'
p832
I1
sS'!teat'
p833
I1
sS'!tear'
p834
I2
sS'!dope'
p835
I1
sS'!betray'
p836
I2
sS'!stress'
p837
I2
sS'!questionably'
p838
I1
sS'!pocket'
p839
I1
sS'!pass'
p840
I7
sS'!light'
p841
I1
sS'!input'
p842
I1
sS'!pmsinduced'
p843
I1
sS'!normal'
p844
I9
sS'!stressing'
p845
I3
sS'!disclose'
p846
I3
sS'!anymore'
p847
I22
sS'!herded'
p848
I1
sS'!blashpemise'
p849
I1
sS'!separate'
p850
I1
sS'!afraid'
p851
I16
sS'!carpe'
p852
I1
sS'!others'
p853
I2
sS'!presenting'
p854
I1
sS'!fish'
p855
I1
sS'!reach'
p856
I3
sS'!touring'
p857
I1
sS'!outrun'
p858
I2
sS'!revert'
p859
I1
sS'!rip'
p860
I1
sS'!freaking'
p861
I7
sS'!gawk'
p862
I1
sS'!contribute'
p863
I1
sS'!downtown'
p864
I1
sS'!covered'
p865
I1
sS'!recover'
p866
I1
sS'!pictured'
p867
I1
sS'!cutting'
p868
I3
sS'!phone'
p869
I2
sS'!despise'
p870
I1
sS'!waiitt'
p871
I2
sS'!sure'
p872
I755
sS'!longterm'
p873
I1
sS'!httpisgdradb'
p874
I1
sS'!contract'
p875
I1
sS'!freaken'
p876
I1
sS'!lie'
p877
I10
sS'!been'
p878
I83
sS'!popular'
p879
I4
sS'!rude'
p880
I1
sS'!hiding'
p881
I4
sS'!hannah'
p882
I1
sS'!spymaster'
p883
I1
sS'!hello'
p884
I2
sS'!richard'
p885
I2
sS'!cancel'
p886
I1
sS'!bashing'
p887
I1
sS'!digitize'
p888
I1
sS'!write'
p889
I4
sS'!croft'
p890
I1
sS'!seequot'
p891
I1
sS'!itll'
p892
I3
sS'!play'
p893
I22
sS'!thats'
p894
I7
sS'!wat'
p895
I2
sS'!til'
p896
I5
sS'!web'
p897
I1
sS'!juzz'
p898
I1
sS'!thatd'
p899
I1
sS'!smacking'
p900
I1
sS'!trust'
p901
I10
sS'!quotquestionquot'
p902
I1
sS'!publish'
p903
I1
sS'!boring'
p904
I20
sS'!meh'
p905
I1
sS'!felt'
p906
I1
sS'!remembering'
p907
I2
sS'!on'
p908
I206
sS'!shakes'
p909
I1
sS'!ok'
p910
I12
sS'!blogging'
p911
I3
sS'!oh'
p912
I6
sS'!obnoxious'
p913
I1
sS'!os'
p914
I1
sS'!or'
p915
I3
sS'!loosing'
p916
I1
sS'!met'
p917
I2
sS'!affect'
p918
I4
sS'!filmed'
p919
I1
sS'!upgrading'
p920
I1
sS'!imagin'
p921
I1
sS'!pull'
p922
I11
sS'!40something'
p923
I1
sS'!ego'
p924
I2
sS'!harm'
p925
I4
sS'!wish'
p926
I3
sS'!replied'
p927
I1
sS'!loyal'
p928
I1
sS'!flossing'
p929
I1
sS'!prophecy'
p930
I1
sS'!hair'
p931
I1
sS'!gona'
p932
I4
sS'!bomb'
p933
I1
sS'!base'
p934
I1
sS'!beach'
p935
I1
sS'!using'
p936
I33
sS'!socal'
p937
I1
sS'!compatible'
p938
I2
sS'!yh'
p939
I1
sS'!shocking'
p940
I1
sS'!should'
p941
I2
sS'!manage'
p942
I2
sS'!arguing'
p943
I2
sS'!yelling'
p944
I1
sS'!approve'
p945
I2
sS'!extension'
p946
I1
sS'!yt'
p947
I1
sS'!within'
p948
I1
sS'!cymk'
p949
I1
sS'!follow'
p950
I32
sS'!insane'
p951
I1
sS'!believed'
p952
I1
sS'!shut'
p953
I9
sS'!middle'
p954
I1
sS'!expecting'
p955
I5
sS'!ohhh'
p956
I1
sS'!crosscountry'
p957
I1
sS'!albertan'
p958
I1
sS'!prob'
p959
I1
sS'!cya'
p960
I1
sS'!believes'
p961
I1
sS'!turning'
p962
I2
sS'!retwist'
p963
I1
sS'!ended'
p964
I1
sS'!partake'
p965
I1
sS'!cranky'
p966
I2
sS'!realy'
p967
I2
sS'!cooking'
p968
I4
sS'!clumsy'
p969
I1
sS'!awear'
p970
I1
sS'!decided'
p971
I2
sS'!selfish'
p972
I6
sS'!offering'
p973
I1
sS'!revealed'
p974
I1
sS'!gay'
p975
I13
sS'!blend'
p976
I1
sS'!drink'
p977
I10
sS'!building'
p978
I1
sS'!target'
p979
I1
sS'!goodnight'
p980
I3
sS'!chuck'
p981
I1
sS'!fare'
p982
I1
sS'!quotsweating'
p983
I1
sS'!responded'
p984
I1
sS'!laugh'
p985
I9
sS'!involving'
p986
I2
sS'!sunny'
p987
I9
sS'!hosting'
p988
I1
sS'!ingeniously'
p989
I1
sS'!unfamiliar'
p990
I1
sS'!walk'
p991
I8
sS'!sweat'
p992
I1
sS'!particular'
p993
I1
sS'!fcking'
p994
I1
sS'!donate'
p995
I1
sS'!touch'
p996
I18
sS'!staying'
p997
I5
sS'!practicing'
p998
I3
sS'!talkinggg'
p999
I1
sS'!bugging'
p1000
I1
sS'!quothurt'
p1001
I1
sS'!coughing'
p1002
I3
sS'!coping'
p1003
I1
sS'!search'
p1004
I1
sS'!planned'
p1005
I1
sS'!console'
p1006
I1
sS'!creep'
p1007
I1
sS'!attacking'
p1008
I1
sS'!fret'
p1009
I2
sS'!jack'
p1010
I1
sS'!russians'
p1011
I1
sS'!deterred'
p1012
I1
sS'!idgaf'
p1013
I1
sS'!tpye'
p1014
I1
sS'!patd'
p1015
I1
sS'!free'
p1016
I13
sS'!longer'
p1017
I4
sS'!240'
p1018
I1
sS'!tailored'
p1019
I1
sS'!gullable'
p1020
I1
sS'!expensive'
p1021
I3
sS'!killin'
p1022
I1
sS'!balloon'
p1023
I1
sS'!vespa'
p1024
I1
sS'!buenos'
p1025
I1
sS'!made'
p1026
I8
sS'!derived'
p1027
I1
sS'!party'
p1028
I1
sS'!confident'
p1029
I2
sS'!gave'
p1030
I1
sS'!vanilla'
p1031
I1
sS'!proof'
p1032
I1
sS'!comes'
p1033
I1
sS'!under'
p1034
I3
sS'!clarifying'
p1035
I1
sS'!participating'
p1036
I2
sS'!smart'
p1037
I5
sS'!responding'
p1038
I4
sS'!attractive'
p1039
I1
sS'!were'
p1040
I3
sS'!business'
p1041
I2
sS'!invite'
p1042
I1
sS'!navigate'
p1043
I1
sS'!quottuckquot'
p1044
I1
sS'!hide'
p1045
I10
sS'!wierd'
p1046
I1
sS'!act'
p1047
I1
sS'!quotomg'
p1048
I1
sS'!knowin'
p1049
I3
sS'!impostors'
p1050
I1
sS'!autoadding'
p1051
I1
sS'!lazy'
p1052
I6
sS'!wanna'
p1053
I6
sS'!caringpeople'
p1054
I1
sS'!fantastic'
p1055
I1
sS'!dismal'
p1056
I1
sS'!eff'
p1057
I1
sS'!embarrassed'
p1058
I3
sS'!appreciate'
p1059
I4
sS'!becuase'
p1060
I1
sS'!screw'
p1061
I3
sS'!local'
p1062
I2
sS'!stalling'
p1063
I1
sS'!76'
p1064
I1
sS'!75'
p1065
I1
sS'!devote'
p1066
I1
sS'!rite'
p1067
I1
sS'!expected'
p1068
I3
sS'!shiny'
p1069
I1
sS'!skivving'
p1070
I1
sS'!expose'
p1071
I1
sS'!spuce'
p1072
I1
sS'!downgrade'
p1073
I1
sS'!venting'
p1074
I1
sS'!shad'
p1075
I1
sS'!blackmailing'
p1076
I1
sS'!guilty'
p1077
I1
sS'!tha'
p1078
I1
sS'!answering'
p1079
I1
sS'!wakes'
p1080
I2
sS'!the'
p1081
I759
sS'!tho'
p1082
I3
sS'!thn'
p1083
I2
sS'!said'
p1084
I6
sS'!freaky'
p1085
I1
sS'!ghettofab'
p1086
I1
sS'!counterclockwise'
p1087
I1
sS'!tht'
p1088
I3
sS'!annoy'
p1089
I2
sS'!thx'
p1090
I1
sS'!tomorrows'
p1091
I1
sS'!designing'
p1092
I1
sS'!trippin'
p1093
I4
sS'!white'
p1094
I1
sS'!telling'
p1095
I15
sS'!whatsup'
p1096
I1
sS'!actor'
p1097
I1
sS'!\xc3\x82\xc2\xa3390'
p1098
I1
sS'!shit'
p1099
I3
sS'!cant'
p1100
I2
sS'!ship'
p1101
I1
sS'!belgian'
p1102
I1
sS'!greathave'
p1103
I1
sS'!rot'
p1104
I1
sS'!accurate'
p1105
I2
sS'!slept'
p1106
I3
sS'!trying'
p1107
I25
sS'!embarrassing'
p1108
I2
sS'!reality'
p1109
I1
sS'!knew'
p1110
I1
sS'!glenmorangie'
p1111
I1
sS'!borrowed'
p1112
I1
sS'!horribly'
p1113
I1
sS'!starting'
p1114
I4
sS'!edited'
p1115
I1
sS'!exercise'
p1116
I1
sS'!somebody'
p1117
I1
sS'!workn'
p1118
I1
sS'!horrible'
p1119
I1
sS'!active'
p1120
I3
sS'!sinks'
p1121
I1
sS'!roots'
p1122
I1
sS'!exhibiting'
p1123
I1
sS'!easy'
p1124
I30
sS'!referring'
p1125
I3
sS'!due'
p1126
I3
sS'!its'
p1127
I38
sS'!then'
p1128
I25
sS'!sausage'
p1129
I1
sS'!east'
p1130
I1
sS'!tweeting'
p1131
I13
sS'!shameless'
p1132
I1
sS'!fly'
p1133
I1
sS'!randall'
p1134
I1
sS'!london'
p1135
I1
sS'!they'
p1136
I12
sS'!passive'
p1137
I2
sS'!rocket'
p1138
I2
sS'!autobon'
p1139
I1
sS'!premiere'
p1140
I1
sS'!benching'
p1141
I1
sS'!onill'
p1142
I1
sS'!she'
p1143
I6
sS'!xx'
p1144
I2
sS'!england'
p1145
I1
sS'!british'
p1146
I2
sS'!dutch'
p1147
I1
sS'!shy'
p1148
I3
sS'!xd'
p1149
I8
sS'!facebook'
p1150
I3
sS'!xo'
p1151
I1
sS'!crack'
p1152
I1
sS'!every'
p1153
I13
sS'!titles'
p1154
I1
sS'!bunk'
p1155
I1
sS'!wanted'
p1156
I1
sS'!working'
p1157
I100
sS'!quantity'
p1158
I8
sS'!edit'
p1159
I2
sS'!living'
p1160
I4
sS'!once'
p1161
I4
sS'!reallyquot'
p1162
I1
sS'!amused'
p1163
I1
sS'!barbeque'
p1164
I1
sS'!laziness'
p1165
I1
sS'!hahah'
p1166
I3
sS'!piquet'
p1167
I1
sS'!terribly'
p1168
I3
sS'!failyoull'
p1169
I1
sS'!400'
p1170
I1
sS'!dissapoint'
p1171
I1
sS'!sore'
p1172
I2
sS'!philanthropy'
p1173
I1
sS'!people'
p1174
I4
sS'!tacos'
p1175
I1
sS'!cancelled'
p1176
I1
sS'!pinkberry'
p1177
I1
sS'!right'
p1178
I30
sS'!naughty'
p1179
I2
sS'!sort'
p1180
I1
sS'!second'
p1181
I1
sS'!spending'
p1182
I2
sS'!sink'
p1183
I1
sS'!guna'
p1184
I1
sS'!iceland'
p1185
I1
sS'!connected'
p1186
I1
sS'!woth'
p1187
I1
sS'!moaning'
p1188
I1
sS'!sing'
p1189
I17
sS'!wake'
p1190
I5
sS'!sugegts'
p1191
I1
sS'!materialistic'
p1192
I1
sS'!fast'
p1193
I1
sS'!twittering'
p1194
I8
sS'!name'
p1195
I5
sS'!finding'
p1196
I4
sS'!napping'
p1197
I2
sS'!responsible'
p1198
I2
sS'!quick'
p1199
I1
sS'!530'
p1200
I1
sS'!choke'
p1201
I1
sS'!bully'
p1202
I1
sS'!badslept'
p1203
I1
sS'!invited'
p1204
I8
sS'!charging'
p1205
I1
sS'!gooseppis'
p1206
I1
sS'!az'
p1207
I1
sS'!spelt'
p1208
I1
sS'!haters'
p1209
I1
sS'!posting'
p1210
I6
sS'!forgive'
p1211
I1
sS'!cheerios'
p1212
I1
sS'!no'
p1213
I13
sS'!workin'
p1214
I6
sS'!negative'
p1215
I2
sS'!nj'
p1216
I1
sS'!impresive'
p1217
I1
sS'!fitting'
p1218
I2
sS'!writingperforming'
p1219
I1
sS'!clash'
p1220
I1
sS'!equivalent'
p1221
I1
sS'!quantify'
p1222
I1
sS'!talking'
p1223
I33
sS'!baaarf'
p1224
I1
sS'!complaning'
p1225
I1
sS'!overstyled'
p1226
I1
sS'!adam'
p1227
I3
sS'!considered'
p1228
I3
sS'!buying'
p1229
I10
sS'!hackedspam'
p1230
I1
sS'!excatly'
p1231
I1
sS'!offtopic'
p1232
I1
sS'!shemale'
p1233
I1
sS'!blv'
p1234
I1
sS'!oolong'
p1235
I1
sS'!describe'
p1236
I6
sS'!losing'
p1237
I4
sS'!agreed'
p1238
I1
sS'!skynet'
p1239
I1
sS'!pulled'
p1240
I1
sS'!classes'
p1241
I1
sS'!constitute'
p1242
I1
sS'!singularity'
p1243
I1
sS'!musical'
p1244
I1
sS'!culinary'
p1245
I1
sS'!looked'
p1246
I3
sS'!gadget'
p1247
I1
sS'!paid'
p1248
I4
sS'!casting'
p1249
I1
sS'!stirred'
p1250
I1
sS'!bayle'
p1251
I1
sS'!convince'
p1252
I1
sS'!ignorant'
p1253
I2
sS'!guess'
p1254
I4
sS'!github'
p1255
I1
sS'!caring'
p1256
I4
sS'!open'
p1257
I18
sS'!temped'
p1258
I1
sS'!call'
p1259
I19
sS'!calm'
p1260
I1
sS'!spoil'
p1261
I9
sS'!asked'
p1262
I1
sS'!mexico'
p1263
I1
sS'!uum'
p1264
I1
sS'!forward'
p1265
I1
sS'!temper'
p1266
I1
sS'!miss'
p1267
I47
sS'!stuffed'
p1268
I1
sS'!antikobe'
p1269
I1
sS'!humans'
p1270
I2
sS'!art'
p1271
I1
sS'!friggin'
p1272
I1
sS'!theyre'
p1273
I2
sS'!yet'
p1274
I185
sS'!signed'
p1275
I2
sS'!old'
p1276
I26
sS'!join'
p1277
I11
sS'!are'
p1278
I2
sS'!great'
p1279
I17
sS'!doo'
p1280
I1
sS'!italian'
p1281
I1
sS'!neccesary'
p1282
I1
sS'!sending'
p1283
I7
sS'!entering'
p1284
I1
sS'!lyk'
p1285
I1
sS'!correspond'
p1286
I1
sS'!monday'
p1287
I3
sS'!orangey'
p1288
I1
sS'!pancakes'
p1289
I1
sS'!stubborn'
p1290
I1
sS'!downloaded'
p1291
I1
sS'!job'
p1292
I1
sS'!joe'
p1293
I2
sS'!jkjk'
p1294
I1
sS'!shutup'
p1295
I1
sS'!picking'
p1296
I1
sS'!halff'
p1297
I1
sS'!four'
p1298
I2
sS'!entertain'
p1299
I2
sS'!makin'
p1300
I1
sS'!merge'
p1301
I1
sS'!dread'
p1302
I1
sS'!borack'
p1303
I1
sS'!relaxing'
p1304
I1
sS'!okay'
p1305
I7
sS'!register'
p1306
I1
sS'!lunch'
p1307
I2
sS'!acquit'
p1308
I1
sS'!agree'
p1309
I20
sS'!repost'
p1310
I1
sS'!cld'
p1311
I1
sS'!gerald'
p1312
I1
sS'!blipfm'
p1313
I1
sS'!vouch'
p1314
I1
sS'!sinhalese'
p1315
I1
sS'!encouraging'
p1316
I1
sS'!lasting'
p1317
I1
sS'!rob'
p1318
I1
sS'!alone'
p1319
I135
sS'!along'
p1320
I1
sS'!matter'
p1321
I12
sS'!practically'
p1322
I1
sS'!taking'
p1323
I20
sS'!junk'
p1324
I1
sS'!ross'
p1325
I1
sS'!clown'
p1326
I1
sS'!preserving'
p1327
I1
sS'!june'
p1328
I1
sS'!mitchels'
p1329
I1
sS'!vista'
p1330
I2
sS'!needle'
p1331
I1
sS'!fuctioning'
p1332
I1
sS'!yasmina'
p1333
I1
sS'!tex'
p1334
I1
sS'!ashamed'
p1335
I5
sS'!does'
p1336
I1
sS'!vampires'
p1337
I1
sS'!head'
p1338
I2
sS'!twitting'
p1339
I1
sS'!likely'
p1340
I6
sS'!some'
p1341
I12
sS'!satisfied'
p1342
I2
sS'!arriving'
p1343
I5
sS'!qualify'
p1344
I1
sS'!grand'
p1345
I1
sS'!broadcast'
p1346
I2
sS'!spoiled'
p1347
I1
sS'!entertaining'
p1348
I1
sS'!deny'
p1349
I7
sS'!ad'
p1350
I1
sS'!indeed'
p1351
I3
sS'!ate'
p1352
I1
sS'!rushing'
p1353
I1
sS'!abandon'
p1354
I1
sS'!standing'
p1355
I1
sS'!lick'
p1356
I1
sS'!claiming'
p1357
I1
sS'!discuss'
p1358
I4
sS'!rushinq'
p1359
I1
sS'!ah'
p1360
I3
sS'!dworkinquot'
p1361
I1
sS'!there'
p1362
I61
sS'!hardly'
p1363
I10
sS'!roar'
p1364
I1
sS'!mcfly'
p1365
I2
sS'!blocked'
p1366
I5
sS'!damage'
p1367
I2
sS'!weight'
p1368
I1
sS'!ridiculous'
p1369
I1
sS'!dang'
p1370
I1
sS'!candy'
p1371
I1
sS'!road'
p1372
I1
sS'!believing'
p1373
I4
sS'!whn'
p1374
I1
sS'!follwng'
p1375
I1
sS'!madam'
p1376
I1
sS'!quotbequot'
p1377
I1
sS'!who'
p1378
I8
sS'!me'
p1379
I126
sS'!sleepover'
p1380
I1
sS'!catholicism'
p1381
I1
sS'!my'
p1382
I207
sS'!treatment'
p1383
I1
sS'!supergee'
p1384
I1
sS'!dunkin'
p1385
I1
sS'!waiting'
p1386
I6
sS'!mr'
p1387
I2
sS'!easily'
p1388
I5
sS'!heh'
p1389
I3
sS'!smile'
p1390
I6
sS'!unconciously'
p1391
I1
sS'!fit'
p1392
I17
sS'!fabulous'
p1393
I1
sS'!earn'
p1394
I1
sS'!talked'
p1395
I2
sS'!comfy'
p1396
I1
sS'!wati'
p1397
I1
sS'!walle'
p1398
I1
sS'!strictly'
p1399
I1
sS'!acquainted'
p1400
I1
sS'!watched'
p1401
I8
sS'!her'
p1402
I13
sS'!hes'
p1403
I2
sS'!front'
p1404
I3
sS'!enuf'
p1405
I3
sS'!lend'
p1406
I1
sS'!as'
p1407
I268
sS'!fkn'
p1408
I1
sS'!leno'
p1409
I1
sS'!tinseltown'
p1410
I1
sS'!reason'
p1411
I2
sS'!communist'
p1412
I1
sS'!freakin'
p1413
I2
sS'!raced'
p1414
I1
sS'!yummy'
p1415
I2
sS'!integral'
p1416
I1
sS'!sin'
p1417
I1
sS'!500'
p1418
I1
sS'!sarcastic'
p1419
I1
sS'!gnite'
p1420
I1
sS'!hit'
p1421
I10
sS'!you\xc3\x82\xc2\xb4re'
p1422
I1
sS'!remove'
p1423
I2
sS'!happening'
p1424
I9
sS'!private'
p1425
I1
sS'!fourteen'
p1426
I1
sS'!kannadiga'
p1427
I1
sS'!930am'
p1428
I1
sS'!struggle'
p1429
I1
sS'!sit'
p1430
I9
sS'!nicked'
p1431
I1
sS'!enough'
p1432
I74
sS'!updating'
p1433
I4
sS'!strumming'
p1434
I1
sS'!effed'
p1435
I1
sS'!tweetdeck'
p1436
I1
sS'!ttyl'
p1437
I1
sS'!645'
p1438
I1
sS'!river'
p1439
I1
sS'!awful'
p1440
I2
sS'!serious'
p1441
I4
sS'!quotagainstquot'
p1442
I1
sS'!starve'
p1443
I1
sS'!mate'
p1444
I4
sS'!vengeful'
p1445
I1
sS'!ahahah'
p1446
I1
sS'!important'
p1447
I6
sS'!everyday'
p1448
I8
sS'!tabooing'
p1449
I1
sS'!siavash'
p1450
I1
sS'!yesterday'
p1451
I1
sS'!hear'
p1452
I36
sS'!rape'
p1453
I2
sS'!nevermind'
p1454
I1
sS'!ask'
p1455
I30
sS'!ash'
p1456
I1
sS'!mix'
p1457
I1
sS'!coolest'
p1458
I1
sS'!green'
p1459
I1
sS'!making'
p1460
I20
sS'!inflict'
p1461
I1
sS'!smell'
p1462
I1
sS'!bag'
p1463
I1
sS'!bad'
p1464
I201
sS'!america'
p1465
I1
sS'!release'
p1466
I3
sS'!redlight'
p1467
I1
sS'!music'
p1468
I3
sS'!breakingquot'
p1469
I1
sS'!pouring'
p1470
I2
sS'!bless'
p1471
I1
sS'!bat'
p1472
I1
sS'!resent'
p1473
I1
sS'!inviting'
p1474
I1
sS'!unfollow'
p1475
I4
sS'!quotthe'
p1476
I1
sS'!asthma'
p1477
I1
sS'!yellin'
p1478
I1
sS'!presentationcommando'
p1479
I1
sS'!employer'
p1480
I1
sS'!normally'
p1481
I6
sS'!conducive'
p1482
I2
sS'!muchhh'
p1483
I1
sS'!explain'
p1484
I12
sS'!delete'
p1485
I7
sS'!especially'
p1486
I1
sS'!premature'
p1487
I1
sS'!plural'
p1488
I1
sS'!txt'
p1489
I1
sS'!realize'
p1490
I1
sS'!gotten'
p1491
I3
sS'!gettin'
p1492
I2
sS'!improve'
p1493
I2
sS'!nicerather'
p1494
I1
sS'!ready'
p1495
I37
sS'!catch'
p1496
I8
sS'!wait2'
p1497
I1
sS'!emulate'
p1498
I1
sS'!nutritious'
p1499
I1
sS'!mental'
p1500
I1
sS'!give'
p1501
I52
sS'!dude'
p1502
I1
sS'!shovel'
p1503
I1
sS'!ugly'
p1504
I5
sS'!already'
p1505
I13
sS'!straying'
p1506
I1
sS'!rusty'
p1507
I1
sS'!interrupting'
p1508
I2
sS'!dudu'
p1509
I1
sS'!soccer'
p1510
I1
sS'!waiti'
p1511
I2
sS'!stroop'
p1512
I1
sS'!chaperone'
p1513
I1
sS'!next'
p1514
I6
sS'!correct'
p1515
I1
sS'!waitb'
p1516
I1
sS'!loading'
p1517
I3
sS'!hate'
p1518
I19
sS'!everyone'
p1519
I22
sS'!florida'
p1520
I1
sS'!raining'
p1521
I41
sS'!waitz'
p1522
I1
sS'!uhm'
p1523
I1
sS'!waitt'
p1524
I15
sS'!thatim'
p1525
I1
sS'!slow'
p1526
I4
sS'!match'
p1527
I2
sS'!heading'
p1528
I1
sS'!fathom'
p1529
I4
sS'!reebokin'
p1530
I1
sS'!stranded'
p1531
I1
sS'!confirmed'
p1532
I3
sS'!beyond'
p1533
I1
sS'!watch'
p1534
I51
sS'!beleive'
p1535
I3
sS'!rememer'
p1536
I1
sS'!sleeping'
p1537
I30
sS'!healthy'
p1538
I3
sS'!dawnpatrol'
p1539
I1
sS'!sleepin'
p1540
I3
sS'!lady'
p1541
I2
sS'!admit'
p1542
I3
sS'!helping'
p1543
I11
sS'!noticing'
p1544
I2
sS'!sweet'
p1545
I2
sS'!pep8'
p1546
I1
sS'!attractin'
p1547
I1
sS'!flavorful'
p1548
I1
sS'!confront'
p1549
I1
sS'!chems'
p1550
I1
sS'!these'
p1551
I3
sS'!teenager'
p1552
I1
sS'!limit'
p1553
I1
sS'!affiliated'
p1554
I2
sS'!animall'
p1555
I1
sS'!wear'
p1556
I18
sS'!tonight'
p1557
I18
sS'!danceoffyourchest'
p1558
I1
sS'!theres'
p1559
I2
sS'!bringing'
p1560
I3
sS'!soby'
p1561
I1
sS'!related'
p1562
I5
sS'!required'
p1563
I3
sS'!mineits'
p1564
I1
sS'!returned'
p1565
I4
sS'!eating'
p1566
I19
sS'!spread'
p1567
I1
sS'!grow'
p1568
I3
sS'!succeed'
p1569
I1
sS'!accepting'
p1570
I2
sS'!disagreeing'
p1571
I1
sS'!rails'
p1572
I2
sS'!bothering'
p1573
I4
sS'!neary'
p1574
I1
sS'!accnt'
p1575
I1
sS'!remember'
p1576
I94
sS'!compare'
p1577
I6
sS'!waaiiit'
p1578
I1
sS'!50'
p1579
I2
sS'!54'
p1580
I1
sS'!59'
p1581
I1
sS'!impressed'
p1582
I6
sS'!recall'
p1583
I4
sS'!held'
p1584
I1
sS'!quot'
p1585
I3
sS'!beegin'
p1586
I1
sS'!friday'
p1587
I6
sS'!ignorance'
p1588
I1
sS'!motiviation'
p1589
I1
sS'!chase'
p1590
I1
sS'!interesting'
p1591
I4
sS'!effective'
p1592
I2
sS'!locked'
p1593
I1
sS'!explode'
p1594
I1
sS'!help'
p1595
I183
sS'!kiss'
p1596
I1
sS'!vietnam'
p1597
I1
sS'!practical'
p1598
I6
sS'!tooo'
p1599
I2
sS'!wishy'
p1600
I1
sS'!lazing'
p1601
I1
sS'!depending'
p1602
I1
sS'!lisa'
p1603
I1
sS'!kudos'
p1604
I1
sS'!andy'
p1605
I1
sS'!necessairily'
p1606
I1
sS'!twitpics'
p1607
I1
sS'!crashing'
p1608
I2
sS'!checking'
p1609
I2
sS'!dead'
p1610
I17
sS'!rufulicious'
p1611
I1
sS'!your'
p1612
I77
sS'!beleave'
p1613
I1
sS'!twitterwhore'
p1614
I1
sS'!chubby'
p1615
I2
sS'!dinner'
p1616
I1
sS'!jet'
p1617
I1
sS'!babe'
p1618
I2
sS'!waiiit'
p1619
I2
sS'!freezing'
p1620
I2
sS'!famous'
p1621
I10
sS'!idc'
p1622
I1
sS'!isane'
p1623
I1
sS'!nails'
p1624
I1
sS'!waight'
p1625
I1
sS'!condone'
p1626
I2
sS'!quotnurturing'
p1627
I1
sS'!porcelain'
p1628
I1
sS'!mebbe'
p1629
I1
sS'!adore'
p1630
I1
sS'!days'
p1631
I1
sS'!pretending'
p1632
I1
sS'!particularly'
p1633
I8
sS'!cap600'
p1634
I1
sS'!2late'
p1635
I1
sS'!resist'
p1636
I27
sS'!worth'
p1637
I35
sS'!burnt'
p1638
I2
sS'!afford'
p1639
I29
sS'!though'
p1640
I8
sS'!star'
p1641
I1
sS'!sold'
p1642
I2
sS'!playin'
p1643
I2
sS'!poppin'
p1644
I1
sS'!spell'
p1645
I22
sS'!stay'
p1646
I33
sS'!enthuased'
p1647
I1
sS'!stealthy'
p1648
I1
sS'!celebrating'
p1649
I3
sS'!fault'
p1650
I2
sS'!wait'
p1651
I5037
sS'!wail'
p1652
I1
sS'!updated'
p1653
I1
sS'!hundred'
p1654
I1
sS'!lauren'
p1655
I1
sS'!laughing'
p1656
I9
sS'!toilet'
p1657
I1
sS'!spammer'
p1658
I1
sS'!dropped'
p1659
I1
sS'!entirely'
p1660
I15
sS'!dreamng'
p1661
I1
sS'!ball'
p1662
I1
sS'!yellow'
p1663
I1
sS'!received'
p1664
I2
sS'!survive'
p1665
I4
sS'!fully'
p1666
I12
sS'!ring'
p1667
I1
sS'!gunna'
p1668
I9
sS'!totaly'
p1669
I1
sS'!vamp'
p1670
I1
sS'!mutually'
p1671
I4
sS'!fulll'
p1672
I1
sS'!voyed'
p1673
I1
sS'!lp'
p1674
I2
sS'!woops'
p1675
I1
sS'!relevant'
p1676
I1
sS'!irl'
p1677
I1
sS'!apologising'
p1678
I1
sS'!donuts'
p1679
I2
sS'!bristol'
p1680
I1
sS'!noticed'
p1681
I2
sS'!during'
p1682
I5
sS'!guarentee'
p1683
I2
sS'!insufferable'
p1684
I1
sS'!hungry'
p1685
I7
sS'!gna'
p1686
I1
sS'!any'
p1687
I12
sS'!blue'
p1688
I1
sS'!java'
p1689
I1
sS'!unconscious'
p1690
I1
sS'!high'
p1691
I6
sS'!strong'
p1692
I2
sS'!fruity'
p1693
I1
sS'!absorbing'
p1694
I1
sS'!capable'
p1695
I1
sS'!corner'
p1696
I1
sS'!hangin'
p1697
I1
sS'!hoping'
p1698
I1
sS'!comin'
p1699
I2
sS'!brag'
p1700
I1
sS'!take'
p1701
I94
sS'!massively'
p1702
I1
sS'!digitally'
p1703
I1
sS'!spree'
p1704
I1
sS'!custurd'
p1705
I1
sS'!dyed'
p1706
I2
sS'!barely'
p1707
I1
sS'!embarass'
p1708
I1
sS'!switch'
p1709
I1
sS'!throw'
p1710
I7
sS'!become'
p1711
I5
sS'!listen'
p1712
I18
sS'!draw'
p1713
I7
sS'!inflicting'
p1714
I1
sS'!spoke'
p1715
I2
sS'!care'
p1716
I21
sS'!like'
p1717
I189
sS'!caro'
p1718
I1
sS'!adidas'
p1719
I2
sS'!narcissistic'
p1720
I1
sS'!kicking'
p1721
I1
sS'!drag'
p1722
I1
sS'!windows'
p1723
I1
sS'!bb'
p1724
I1
sS'!bc'
p1725
I3
sS'!be'
p1726
I1102
sS'!setting'
p1727
I1
sS'!italy'
p1728
I1
sS'!trawling'
p1729
I1
sS'!berantem'
p1730
I1
sS'!huge'
p1731
I2
sS'!bs'
p1732
I1
sS'!bt'
p1733
I1
sS'!test'
p1734
I2
sS'!snowing'
p1735
I1
sS'!surf'
p1736
I1
sS'!failing'
p1737
I1
sS'!begin'
p1738
I4
sS'!one'
p1739
I55
sS'!impair'
p1740
I1
sS'!diagnose'
p1741
I1
sS'!sent'
p1742
I1
sS'!dis'
p1743
I1
sS'!dwell'
p1744
I1
sS'!stopquot'
p1745
I1
sS'!marriage'
p1746
I2
sS'!yampa'
p1747
I1
sS'!mucky'
p1748
I1
sS'!gaay'
p1749
I1
sS'!barking'
p1750
I2
sS'!ajax'
p1751
I1
sS'!did'
p1752
I2
sS'!die'
p1753
I8
sS'!kind'
p1754
I1
sS'!insomniac'
p1755
I1
sS'!wonder'
p1756
I1
sS'!pure'
p1757
I2
sS'!management'
p1758
I1
sS'!unsure'
p1759
I2
sS'!news'
p1760
I3
sS'!messing'
p1761
I1
sS'!acctually'
p1762
I1
sS'!natalia'
p1763
I1
sS'!forget'
p1764
I72
sS'!cricket'
p1765
I1
sS'!developing'
p1766
I1
sS'!involve'
p1767
I4
sS'!least'
p1768
I10
sS'!letters'
p1769
I1
sS'!effect'
p1770
I1
sS'!agreeing'
p1771
I1
sS'!forcing'
p1772
I1
sS'!wickerparkgal'
p1773
I1
sS'!together'
p1774
I6
sS'!stick'
p1775
I4
sS'!turn'
p1776
I14
sS'!quotrightquot'
p1777
I1
sS'!study'
p1778
I6
sS'!forks'
p1779
I1
sS'!probe'
p1780
I1
sS'!young'
p1781
I2
sS'!criticize'
p1782
I1
sS'!updatin'
p1783
I1
sS'!sworn'
p1784
I1
sS'!dissing'
p1785
I1
sS'!keeping'
p1786
I4
sS'!dishing'
p1787
I1
sS'!pay'
p1788
I6
sS'!whigfield'
p1789
I1
sS'!which'
p1790
I2
sS'!clarcson'
p1791
I1
sS'!goin'
p1792
I8
sS'!quotmomquot'
p1793
I1
sS'!farther'
p1794
I1
sS'!solve'
p1795
I1
sS'!july'
p1796
I2
sS'!grocery'
p1797
I1
sS'!waait'
p1798
I1
sS'!provide'
p1799
I2
sS'!quotweatherquot'
p1800
I1
sS'!hun'
p1801
I2
sS'!rained'
p1802
I1
sS'!bump'
p1803
I2
sS'!friggn'
p1804
I1
sS'!jmac'
p1805
I1
sS'!anger'
p1806
I1
sS'!avoid'
p1807
I2
sS'!realised'
p1808
I1
sS'!letting'
p1809
I17
sS'!opening'
p1810
I2
sS'!evil'
p1811
I8
sS'!ancient'
p1812
I1
sS'!let'
p1813
I114
sS'!annoying'
p1814
I8
sS'!downloadable'
p1815
I1
sS'!beaver'
p1816
I1
sS'!audio'
p1817
I1
sS'!40'
p1818
I1
sS'!bein'
p1819
I2
sS'!leg'
p1820
I1
sS'!sooo'
p1821
I1
sS'!soon'
p1822
I5
sS'!force'
p1823
I1
sS'!hearts'
p1824
I1
sS'!germany'
p1825
I1
sS'!holand'
p1826
I1
sS'!need'
p1827
I31
sS'!houstons'
p1828
I1
sS'!isnt'
p1829
I1
sS'!rock'
p1830
I1
sS'!pour'
p1831
I1
sS'!grafting'
p1832
I1
sS'!drivequot'
p1833
I1
sS'!software'
p1834
I1
sS'!risk'
p1835
I3
sS'!helpl'
p1836
I1
sS'!was'
p1837
I1
sS'!war'
p1838
I2
sS'!figure'
p1839
I30
sS'!often'
p1840
I12
sS'!way'
p1841
I1
sS'!brazil'
p1842
I1
sS'!behavin'
p1843
I1
sS'!necessarily'
p1844
I22
sS'!importantquot'
p1845
I1
sS'!plan'
p1846
I3
sS'!quotsearchquot'
p1847
I1
sS'!belong'
p1848
I2
sS'!sand'
p1849
I1
sS'!sane'
p1850
I1
sS'!hotter'
p1851
I1
sS'!ballet'
p1852
I1
sS'!walking'
p1853
I3
sS'!sabotage'
p1854
I1
sS'!holding'
p1855
I7
sS'!his'
p1856
I8
sS'!either'
p1857
I11
sS'!replace'
p1858
I1
sS'!wokring'
p1859
I1
sS'!travel'
p1860
I1
sS'!upgrade'
p1861
I1
sS'!whatwhat'
p1862
I1
sS'!unli'
p1863
I2
sS'!swelter'
p1864
I2
sS'!condemned'
p1865
I1
sS'!supportive'
p1866
I1
sS'!translate'
p1867
I1
sS'!so'
p1868
I383
sS'!night'
p1869
I3
sS'!smart\xc3\xaf\xc2\xbf\xc2\xbd'
p1870
I1
sS'!picture'
p1871
I3
sS'!finish'
p1872
I9
sS'!break'
p1873
I7
sS'!driving'
p1874
I14
sS'!only'
p1875
I71
sS'!swallow'
p1876
I1
sS'!wealthy'
p1877
I1
sS'!click'
p1878
I2
sS'!certainly'
p1879
I1
sS'!upload'
p1880
I6
sS'!passed'
p1881
I2
sS'!fix'
p1882
I14
sS'!overlly'
p1883
I1
sS'!reppin'
p1884
I1
sS'!belated'
p1885
I2
sS'!expectations'
p1886
I1
sS'!told'
p1887
I1
sS'!rich'
p1888
I2
sS'!quite'
p1889
I115
sS'!food'
p1890
I3
sS'!sellin'
p1891
I1
sS'!recommending'
p1892
I1
sS'!north'
p1893
I2
sS'!sorryquotjamfest'
p1894
I1
sS'!banned'
p1895
I1
sS'!livid'
p1896
I1
sS'!impossible'
p1897
I1
sS'!dangerous'
p1898
I1
sS'!quotweirdquot'
p1899
I1
sS'!type'
p1900
I8
sS'!gaining'
p1901
I1
sS'!attending'
p1902
I2
sS'!college'
p1903
I2
sS'!superserious'
p1904
I1
sS'!bringgg'
p1905
I1
sS'!online'
p1906
I15
sS'!foundthe'
p1907
I1
sS'!cs'
p1908
I1
sS'!silky'
p1909
I1
sS'!ac'
p1910
I1
sS'!am'
p1911
I2
sS'!an'
p1912
I106
sS'!tobys'
p1913
I1
sS'!fighting'
p1914
I2
sS'!shaped'
p1915
I2
sS'!at'
p1916
I165
sS'!sunbathe'
p1917
I1
sS'!tiling'
p1918
I1
sS'!slag'
p1919
I1
sS'!backwards'
p1920
I1
sS'!sitting'
p1921
I3
sS'!until'
p1922
I22
sS'!large'
p1923
I1
sS'!late'
p1924
I7
sS'!ping'
p1925
I1
sS'!sick'
p1926
I11
sS'!susan'
p1927
I3
sS'!commit'
p1928
I2
sS'!stds'
p1929
I1
sS'!realising'
p1930
I2
sS'!movie'
p1931
I1
sS'!sound'
p1932
I6
sS'!given'
p1933
I3
sS'!suprised'
p1934
I1
sS'!unfollowing'
p1935
I2
sS'!pretty'
p1936
I11
sS'!fifty'
p1937
I1
sS'!readseen'
p1938
I1
sS'!recheck'
p1939
I1
sS'!spammy'
p1940
I1
sS'!cause'
p1941
I8
sS'!against'
p1942
I4
sS'!linds'
p1943
I1
sS'!hafta'
p1944
I1
sS'!burst'
p1945
I1
sS'!shoot'
p1946
I5
sS'!bragging'
p1947
I1
sS'!too'
p1948
I406
sS'!wath'
p1949
I1
sS'!viable'
p1950
I1
sS'!blowjob'
p1951
I1
sS'!helpful'
p1952
I1
sS'!wate'
p1953
I3
sS'!aetna'
p1954
I1
sS'!piggystuff'
p1955
I1
sS'!havent'
p1956
I1
sS'!attack'
p1957
I3
sS'!participate'
p1958
I2
sS'!damper'
p1959
I1
sS'!complicated'
p1960
I2
sS'!sims'
p1961
I1
sS'!settle'
p1962
I2
sS'!refute'
p1963
I1
sS'!rly'
p1964
I2
sS'!gary'
p1965
I1
sS'!spricket'
p1966
I1
sS'!questioning'
p1967
I1
sS'!chasing'
p1968
I1
sS'!genders'
p1969
I1
sS'!coz'
p1970
I1
sS'!cos'
p1971
I1
sS'!weiiit'
p1972
I1
sS'!gon'
p1973
I1
sS'!played'
p1974
I7
sS'!chicago'
p1975
I1
sS'!god'
p1976
I4
sS'!anything'
p1977
I5
sS'!rise'
p1978
I1
sS'!bailed'
p1979
I1
sS'!snuggiemafia'
p1980
I1
sS'!whistle'
p1981
I2
sS'!teaching'
p1982
I2
sS'!grait'
p1983
I1
sS'!hurt'
p1984
I41
sS'!hiring'
p1985
I1
sS'!wet'
p1986
I2
sS'!recognize'
p1987
I7
sS'!teachers'
p1988
I1
sS'!fade'
p1989
I1
sS'!paste'
p1990
I1
sS'!nuts'
p1991
I2
sS'!mothers'
p1992
I4
sS'!saturday'
p1993
I1
sS'!bored'
p1994
I9
sS'!drinking'
p1995
I10
sS'!sober'
p1996
I4
sS'!originally'
p1997
I1
sS'!contact'
p1998
I1
sS'!roll'
p1999
I1
sS'!noise'
p2000
I1
sS'!baby'
p2001
I3
sS'!of'
p2002
I9
sS'!total'
p2003
I1
sS'!ondemand'
p2004
I1
sS'!handle'
p2005
I30
sS'!released'
p2006
I4
sS'!growing'
p2007
I2
sS'!dealing'
p2008
I1
sS'!ruin'
p2009
I11
sS'!creative'
p2010
I2
sS'!noisy'
p2011
I1
sS'!wthat'
p2012
I1
sS'!hitman'
p2013
I1
sS'!ampit'
p2014
I1
sS'!men'
p2015
I1
sS'!sams'
p2016
I1
sS'!hehe'
p2017
I2
sS'!rather'
p2018
I1
sS'!same'
p2019
I3
sS'!daggy'
p2020
I1
sS'!consistent'
p2021
I2
sS'!scar'
p2022
I1
sS'!pimping'
p2023
I1
sS'!surprising'
p2024
I5
sS'!h1n1'
p2025
I1
sS'!vids'
p2026
I1
sS'!complainits'
p2027
I1
sS'!can'
p2028
I1
sS'!quottrainingquot'
p2029
I1
sS'!cat'
p2030
I1
sS'!car'
p2031
I1
sS'!selingg'
p2032
I1
sS'!here'
p2033
I45
sS'!lucille'
p2034
I1
sS'!roseville'
p2035
I1
sS'!superman'
p2036
I1
sS'!lonely'
p2037
I2
sS'!promote'
p2038
I1
sS'!rainy'
p2039
I1
sS'!frak'
p2040
I1
sS'!trance'
p2041
I2
sS'!nowbeen'
p2042
I1
sS'!awkward'
p2043
I2
sS'!through'
p2044
I4
sS'!twice'
p2045
I2
sS'!vzw'
p2046
I1
sS'!multitalented'
p2047
I1
sS'!resiliant'
p2048
I1
sS'!nargis'
p2049
I1
sS'!that'
p2050
I496
sS'!leak'
p2051
I1
sS'!leah'
p2052
I1
sS'!wronghe'
p2053
I1
sS'!atampt'
p2054
I1
sS'!uptodate'
p2055
I1
sS'!plmpre'
p2056
I1
sS'!liking'
p2057
I9
sS'!23'
p2058
I1
sS'!oversleep'
p2059
I1
sS'!specialty'
p2060
I1
sS'!1040pm'
p2061
I1
sS'!marry'
p2062
I3
sS'!messin'
p2063
I1
sS'!trouble'
p2064
I1
sS'!lining'
p2065
I1
sS'!antijillian'
p2066
I1
sS'!permitted'
p2067
I1
sS'!understand'
p2068
I32
sS'!offline'
p2069
I1
sS'!ignoring'
p2070
I2
sS'!dream'
p2071
I1
sS'!sli'
p2072
I1
sS'!pro'
p2073
I2
sS'!doin'
p2074
I3
sS'!jump'
p2075
I3
sS'!pricey'
p2076
I1
sS'!messy'
p2077
I1
sS'!meditation'
p2078
I1
sS'!ordere'
p2079
I1
sS'!bury'
p2080
I1
sS'!1994'
p2081
I1
sS'!concietedness'
p2082
I1
sS'!chuffing'
p2083
I1
sS'!personally'
p2084
I3
sS'!crusin'
p2085
I1
sS'!human'
p2086
I1
sS'!yetyou'
p2087
I1
sS'!paying'
p2088
I14
sS'!exist'
p2089
I5
sS'!dm'
p2090
I36
sS'!sleping'
p2091
I1
sS'!skill'
p2092
I1
sS'!sultry'
p2093
I1
sS'!holler'
p2094
I1
sS'!blaming'
p2095
I2
sS'!lds'
p2096
I1
sS'!miracle'
p2097
I1
sS'!gold'
p2098
I1
sS'!loved'
p2099
I1
sS'!twibe'
p2100
I1
sS'!quotsweet'
p2101
I1
sS'!bend'
p2102
I3
sS'!submit'
p2103
I2
sS'!kick'
p2104
I1
sS'!bode'
p2105
I1
sS'!suit'
p2106
I2
sS'!seyhan'
p2107
I1
sS'!ditch'
p2108
I3
sS'!isi'
p2109
I1
sS'!exicted'
p2110
I2
sS'!with'
p2111
I38
sS'!complaining'
p2112
I46
sS'!uncommon'
p2113
I1
sS'!muchh'
p2114
I1
sS'!fancy'
p2115
I1
sS'!katycaptivated'
p2116
I1
sS'!cuter'
p2117
I1
sS'!lets'
p2118
I3
sS'!greedy'
p2119
I3
sS'!familiar'
p2120
I12
sS'!carrying'
p2121
I1
sS'!splurge'
p2122
I1
sS'!diamonds'
p2123
I1
sS'!companies'
p2124
I1
sS'!breaking'
p2125
I2
sS'!ideal'
p2126
I4
sS'!andrews'
p2127
I1
sS'!steer'
p2128
I1
sS'!drive'
p2129
I5
sS'!ideas'
p2130
I1
sS'!rely'
p2131
I1
sS'!compromise'
p2132
I1
sS'!singularly'
p2133
I1
sS'!reall'
p2134
I2
sS'!think'
p2135
I68
sS'!seriously'
p2136
I2
sS'!hold'
p2137
I18
sS'!obvious'
p2138
I2
sS'!choose'
p2139
I15
sS'!gain'
p2140
I2
sS'!quotworstquot'
p2141
I1
sS'!harry'
p2142
I1
sS'!11am'
p2143
I1
sS'!appealing'
p2144
I1
sS'!per'
p2145
I1
sS'!worked'
p2146
I3
sS'!learn'
p2147
I3
sS'!strive'
p2148
I1
sS'!causation'
p2149
I1
sS'!suitable'
p2150
I2
sS'!hang'
p2151
I2
sS'!egg'
p2152
I1
sS'!concentrate'
p2153
I7
sS'!deserve'
p2154
I2
sS'!polsci'
p2155
I1
sS'!socialsandwich'
p2156
I1
sS'!quotprovehito'
p2157
I1
sS'!songs'
p2158
I1
sS'!falling'
p2159
I6
sS'!ladson'
p2160
I1
sS'!kimmyt22'
p2161
I1
sS'!you'
p2162
I162
sS'!enjoying'
p2163
I12
sS'!all'
p2164
I140
sS'!danny'
p2165
I1
sS'!endless'
p2166
I1
sS'!dressing'
p2167
I3
sS'!policy'
p2168
I1
sS'!familar'
p2169
I1
sS'!desperate'
p2170
I4
sS'!street'
p2171
I1
sS'!mastered'
p2172
I1
sS'!embarrass'
p2173
I1
sS'!spoken'
p2174
I4
sS'!commented'
p2175
I1
sS'!partying'
p2176
I1
sS'!annoyed'
p2177
I1
sS'!today'
p2178
I40
sS'!interested'
p2179
I14
sS'!church'
p2180
I1
sS'!transform'
p2181
I1
sS'!recognizing'
p2182
I1
sS'!yknow'
p2183
I1
sS'!guys'
p2184
I1
sS'!cough'
p2185
I2
sS'!spelll'
p2186
I1
sS'!hat'
p2187
I1
sS'!passing'
p2188
I1
sS'!morning'
p2189
I7
sS'!conveniently'
p2190
I1
sS'!bbrother'
p2191
I1
sS'!lies'
p2192
I1
sS'!mean'
p2193
I24
sS'!tweetering'
p2194
I1
sS'!takeanything'
p2195
I1
sS'!zack'
p2196
I1
sS'!biking'
p2197
I1
sS'!changed'
p2198
I3
sS'!acceptable'
p2199
I1
sS'!brownngirl'
p2200
I1
sS'!dumbing'
p2201
I1
sS'!trynna'
p2202
I1
sS'!counted'
p2203
I2
sS'!yay'
p2204
I1
sS'!underestimate'
p2205
I2
sS'!exaclty'
p2206
I1
sS'!geek'
p2207
I1
sS'!ralph'
p2208
I1
sS'!growling'
p2209
I1
sS'!sincere'
p2210
I1
sS'!probably'
p2211
I2
sS'!replyingmy'
p2212
I1
sS'!rap'
p2213
I1
sS'!build'
p2214
I1
sS'!view'
p2215
I4
sS'!lebanese'
p2216
I1
sS'!myspace'
p2217
I1
sS'!meaning'
p2218
I3
sS'!guitar'
p2219
I1
sS'!workingmobile'
p2220
I1
sS'!judging'
p2221
I2
sS'!understanding'
p2222
I6
sS'!historically'
p2223
I1
sS'!respond'
p2224
I5
sS'!japan'
p2225
I1
sS'!ran'
p2226
I1
sS'!around'
p2227
I10
sS'!dampen'
p2228
I1
sS'!1530'
p2229
I1
sS'!arise'
p2230
I1
sS'!bought'
p2231
I2
sS'!140'
p2232
I1
sS'!raiin'
p2233
I1
sS'!consider'
p2234
I1
sS'!happy'
p2235
I21
sS'!regretting'
p2236
I2
sS'!useful'
p2237
I1
sS'!wash'
p2238
I2
sS'!sweaty'
p2239
I1
sS'!makes'
p2240
I2
sS'!chatting'
p2241
I1
sS'!tried'
p2242
I5
sS'!xmas'
p2243
I1
sS'!sleep'
p2244
I229
sS'!jinx'
p2245
I1
sS'!spaamming'
p2246
I1
sS'!bricking'
p2247
I1
sS'!warrant'
p2248
I1
sS'!wasted'
p2249
I3
sS'!makem'
p2250
I1
sS'!nowbut'
p2251
I1
sS'!design'
p2252
I1
sS'!surprised'
p2253
I38
sS'!youll'
p2254
I4
sS'!lookin'
p2255
I2
sS'!dugs'
p2256
I1
sS'!ahem'
p2257
I1
sS'!didnt'
p2258
I1
sS'!googlequot'
p2259
I1
sS'!clicky'
p2260
I1
sS'!debated'
p2261
I1
sS'!other'
p2262
I2
sS'!suffered'
p2263
I2
sS'!pretend'
p2264
I1
sS'!badbut'
p2265
I1
sS'!make'
p2266
I112
sS'!bust'
p2267
I1
sS'!tweeted'
p2268
I5
sS'!syle'
p2269
I1
sS'!ya'
p2270
I4
sS'!functioning'
p2271
I4
sS'!busy'
p2272
I16
sS'!keepin'
p2273
I1
sS'!family'
p2274
I3
sS'!nerdy'
p2275
I1
sS'!please'
p2276
I4
sS'!pams'
p2277
I1
sS'!animal'
p2278
I1
sS'!tat'
p2279
I1
sS'!nerds'
p2280
I1
sS'!traveling'
p2281
I1
sS'!voting'
p2282
I5
sS'!marillions'
p2283
I1
sS'!irrational'
p2284
I2
sS'!religious'
p2285
I1
sS'!careful'
p2286
I1
sS'!apply'
p2287
I5
sS'!good'
p2288
I149
sS'!panic'
p2289
I1
sS'!contagious'
p2290
I1
sS'!euthanize'
p2291
I1
sS'!collecting'
p2292
I1
sS'!shelly'
p2293
I1
sS'!respecting'
p2294
I1
sS'!addictive'
p2295
I1
sS'!dragging'
p2296
I2
sS'!silence'
p2297
I1
sS'!deaf'
p2298
I1
sS'!httpblipfm7d16d'
p2299
I1
sS'!lyrics'
p2300
I1
sS'!dreaming'
p2301
I1
sS'!falter'
p2302
I1
sS'!nominated'
p2303
I1
sS'!flying'
p2304
I2
sS'!unsigned'
p2305
I1
sS'!hormonal'
p2306
I1
sS'!independently'
p2307
I1
sS'!average'
p2308
I2
sS'!glamorous'
p2309
I3
sS'!quottheirquot'
p2310
I1
sS'!punk'
p2311
I1
sS'!plus'
p2312
I1
sS'!quarters'
p2313
I1
sS'!whoop'
p2314
I1
sS'!reviewing'
p2315
I1
sS'!giving'
p2316
I17
sS'!summer'
p2317
I4
sS'!luv'
p2318
I1
sS'!paranoid'
p2319
I2
sS'!perfection'
p2320
I1
sS'!wrong'
p2321
I12
sS'!hopeless'
p2322
I1
sS'!ansewer'
p2323
I1
sS'!ognawg'
p2324
I1
sS'!studio'
p2325
I1
sS'!download'
p2326
I4
sS'!nor'
p2327
I1
sS'!supported'
p2328
I12
sS'!resolved'
p2329
I1
sS'!reading'
p2330
I5
sS'!pshopd'
p2331
I1
sS'!disagree'
p2332
I3
sS'!telln'
p2333
I1
sS'!defeat'
p2334
I1
sS'!motivated'
p2335
I1
sS'!bwi'
p2336
I1
sS'!substantial'
p2337
I1
sS'!new'
p2338
I15
sS'!scripting'
p2339
I1
sS'!calculate'
p2340
I1
sS'!clothes'
p2341
I1
sS'!pulling'
p2342
I1
sS'!close'
p2343
I7
sS'!quotworld'
p2344
I1
sS'!technically'
p2345
I2
sS'!george'
p2346
I1
sS'!forgetting'
p2347
I6
sS'!haggard'
p2348
I1
sS'!later'
p2349
I2
sS'!edible'
p2350
I1
sS'!swimming'
p2351
I2
sS'!awake'
p2352
I5
sS'!present'
p2353
I2
sS'!escape'
p2354
I6
sS'!prepare'
p2355
I1
sS'!dedy'
p2356
I1
sS'!clog'
p2357
I1
sS'!racing'
p2358
I1
sS'!accessable'
p2359
I1
sS'!plug'
p2360
I2
sS'!selling'
p2361
I3
sS'!muffin'
p2362
I1
sS'!wondering'
p2363
I1
sS'!put'
p2364
I36
sS'!smh'
p2365
I1
sS'!teplying'
p2366
I1
sS'!meoh'
p2367
I1
sS'!pmsl'
p2368
I1
sS'!move'
p2369
I18
sS'!givin'
p2370
I2
sS'!actualy'
p2371
I1
sS'!intended'
p2372
I1
sS'!laptop'
p2373
I1
sS'!revealing'
p2374
I1
sS'!rlyat'
p2375
I1
sS'!aha'
p2376
I2
sS'!life'
p2377
I2
sS'!shabby'
p2378
I1
sS'!go'
p2379
I195
sS'!mms'
p2380
I1
sS'!talented'
p2381
I1
sS'!unbut'
p2382
I1
sS'!gg'
p2383
I1
sS'!articles'
p2384
I1
sS'!gd'
p2385
I1
sS'!jjjkk'
p2386
I1
sS'!blasted'
p2387
I1
sS'!english'
p2388
I2
sS'!gt'
p2389
I1
sS'!arrive'
p2390
I1
sS'!pedestrian'
p2391
I1
sS'!bet'
p2392
I2
sS'!lovin'
p2393
I2
sS'!idea'
p2394
I1
sS'!painful'
p2395
I1
sS'!smelling'
p2396
I2
sS'!prayed'
p2397
I1
sS'!bee'
p2398
I2
sS'!wrap'
p2399
I1
sS'!opposed'
p2400
I1
sS'!cloudy'
p2401
I1
sS'!obviously'
p2402
I1
sS'!difficult'
p2403
I1
sS'!shame'
p2404
I1
sS'!skilled'
p2405
I1
sS'!measured'
p2406
I1
sS'!dunno'
p2407
I1
sS'!specifically'
p2408
I2
sS'!accidentally'
p2409
I3
sS'!uglyy'
p2410
I1
sS'!best'
p2411
I2
sS'!procrastinating'
p2412
I2
sS'!following'
p2413
I112
sS'!happened'
p2414
I1
sS'!simply'
p2415
I1
sS'!badly'
p2416
I1
sS'!dorky'
p2417
I1
sS'!warn'
p2418
I1
sS'!warm'
p2419
I2
sS'!slutty'
p2420
I1
sS'!arrived'
p2421
I1
sS'!gross'
p2422
I6
sS'!clickin'
p2423
I1
sS'!aunt'
p2424
I1
sS'!ryan'
p2425
I2
sS'!goodbeaten'
p2426
I1
sS'!charlie'
p2427
I1
sS'!brandy'
p2428
I1
sS'!cansadinha'
p2429
I1
sS'!rascist'
p2430
I1
sS'!bastila'
p2431
I1
sS'!burn'
p2432
I5
sS'!iblocking'
p2433
I1
sS'!swim'
p2434
I5
sS'!named'
p2435
I2
sS'!editing'
p2436
I1
sS'!goodyoure'
p2437
I1
sS'!scaring'
p2438
I2
sS'!myself'
p2439
I3
sS'!tired'
p2440
I43
sS'!alchohol'
p2441
I1
sS'!names'
p2442
I1
sS'!mijougly'
p2443
I1
sS'!tweetercom'
p2444
I1
sS'!quotaboutquot'
p2445
I1
sS'!pissed'
p2446
I2
sS'!hearing'
p2447
I2
sS'!excessivelybusy'
p2448
I1
sS'!tolerated'
p2449
I1
sS'!mcdonalds'
p2450
I1
sS'!manyy'
p2451
I1
sS'!expired'
p2452
I1
sS'!update'
p2453
I9
sS'!impersonating'
p2454
I1
sS'!modelling'
p2455
I1
sS'!black'
p2456
I4
sS'!wit'
p2457
I2
sS'!review'
p2458
I1
sS'!typing'
p2459
I1
sS'!quotseequot'
p2460
I1
sS'!advertisement'
p2461
I1
sS'!drastically'
p2462
I1
sS'!love'
p2463
I27
sS'!paper'
p2464
I3
sS'!autistic'
p2465
I1
sS'!quotdataquot'
p2466
I1
sS'!remeber'
p2467
I3
sS'!stuffy'
p2468
I1
sS'!win'
p2469
I17
sS'!diet'
p2470
I2
sS'!complain'
p2471
I61
sS'!legible'
p2472
I1
sS'!boardofshame'
p2473
I1
sS'!screwed'
p2474
I2
sS'!died'
p2475
I2
sS'!fixed'
p2476
I2
sS'!stolen'
p2477
I1
sS'!tropical'
p2478
I1
sS'!888com'
p2479
I1
sS'!waits'
p2480
I1
sS'!visit'
p2481
I2
sS'!deliver'
p2482
I1
sS'!overwhelmed'
p2483
I1
sS'!lmfaoo'
p2484
I1
sS'!contain'
p2485
I1
sS'!xoxo'
p2486
I1
sS'!ingredient'
p2487
I1
sS'!mention'
p2488
I4
sS'!piccn'
p2489
I1
sS'!shop'
p2490
I2
sS'!advertising'
p2491
I2
sS'!problemed'
p2492
I1
sS'!shot'
p2493
I1
sS'!show'
p2494
I13
sS'!again'
p2495
I4
sS'!ordering'
p2496
I1
sS'!earlier'
p2497
I2
sS'!jealous'
p2498
I8
sS'!maldives'
p2499
I1
sS'!counting'
p2500
I2
sS'!know'
p2501
I122
sS'!determined'
p2502
I1
sS'!takin'
p2503
I1
sS'!from'
p2504
I40
sS'!gayle'
p2505
I1
sS'!tallking'
p2506
I1
sS'!order'
p2507
I4
sS'!fussy'
p2508
I2
sS'!fucking'
p2509
I11
sS'!posh'
p2510
I1
sS'!attitude'
p2511
I1
sS'!nerd'
p2512
I1
sS'!brave'
p2513
I1
sS'!craig'
p2514
I1
sS'!linux'
p2515
I1
sS'!sleepy'
p2516
I13
sS'!dvd'
p2517
I1
sS'!include'
p2518
I5
sS'!shaun'
p2519
I1
sS'!inadvertently'
p2520
I1
sS'!serving'
p2521
I1
sS'!replacing'
p2522
I1
sS'!mainstream'
p2523
I2
sS'!fart'
p2524
I1
sS'!function'
p2525
I3
sS'!hollie'
p2526
I1
sS'!stop'
p2527
I259
sS'!sleepo'
p2528
I1
sS'!feverish'
p2529
I1
sS'!needed'
p2530
I7
sS'!vegan'
p2531
I3
sS'!canadian'
p2532
I1
sS'!invent'
p2533
I1
sS'!sureit'
p2534
I1
sS'!waitunless'
p2535
I1
sS'!wasting'
p2536
I2
sS'!nailed'
p2537
I1
sS'!joyces'
p2538
I1
sS'!sleazy'
p2539
I1
sS'!joking'
p2540
I6
sS'!question'
p2541
I2
sS'!thought'
p2542
I2
sS'!marketing'
p2543
I2
sS'!naked'
p2544
I2
sS'!uniforms'
p2545
I1
sS'!scum'
p2546
I1
sS'!minding'
p2547
I1
sS'!crappy'
p2548
I1
sS'!embrace'
p2549
I1
sS'!overly'
p2550
I2
sS'!cool'
p2551
I43
sS'!words'
p2552
I1
sS'!eggs'
p2553
I1
sS'!positive'
p2554
I3
sS'!quotcrashquot'
p2555
I1
sS'!mattering'
p2556
I1
sS'!inner'
p2557
I1
sS'!phoenix'
p2558
I1
sS'!wwwthetazzonecom'
p2559
I1
sS'!jakarta'
p2560
I1
sS'!aloud'
p2561
I1
sS'!conqrats'
p2562
I1
sS'!elderly'
p2563
I1
sS'!score'
p2564
I1
sS'!gone'
p2565
I9
sS'!anytime'
p2566
I3
sS'!quotrobscarsquot'
p2567
I1
sS'!dsrunk'
p2568
I1
sS'!arent'
p2569
I2
sS'!singel'
p2570
I1
sS'!empty'
p2571
I1
sS'!fuck'
p2572
I3
sS'!spam'
p2573
I8
sS'!kellypuffs'
p2574
I1
sS'!lawn'
p2575
I1
sS'!hyper'
p2576
I1
sS'!endure'
p2577
I1
sS'!bring'
p2578
I16
sS'!relate'
p2579
I1
sS'!sunday'
p2580
I5
sS'!suppose'
p2581
I8
sS'!jameshart'
p2582
I1
sS'!resized'
p2583
I1
sS'!overweight'
p2584
I1
sS'!packing'
p2585
I1
sS'!silent'
p2586
I1
sS'!exposed'
p2587
I1
sS'!tompiper'
p2588
I1
sS'!amazingbut'
p2589
I1
sS'!spears'
p2590
I1
sS'!paired'
p2591
I1
sS'!pr'
p2592
I1
sS'!ps'
p2593
I1
sS'!pt'
p2594
I1
sS'!share'
p2595
I11
sS'!lmao'
p2596
I3
sS'!winning'
p2597
I3
sS'!80s'
p2598
I1
sS'!russ'
p2599
I1
sS'!cracking'
p2600
I2
sS'!quotrobynquot'
p2601
I1
sS'!discover'
p2602
I1
sS'!christmas'
p2603
I2
sS'!pe'
p2604
I1
sS'!gambling'
p2605
I1
sS'!believe'
p2606
I565
sS'!bvt'
p2607
I1
sS'!original'
p2608
I2
sS'!agruing'
p2609
I1
sS'!awesome'
p2610
I3
sS'!equal'
p2611
I2
sS'!peanuts'
p2612
I1
sS'!licorice'
p2613
I1
sS'!alive'
p2614
I1
sS'!hut'
p2615
I1
sS'!arranged'
p2616
I1
sS'!both'
p2617
I5
sS'!folla'
p2618
I1
sS'!compiling'
p2619
I1
sS'!drivin'
p2620
I1
sS'!debateable'
p2621
I1
sS'!waiit'
p2622
I1
sS'!coffee'
p2623
I3
sS'!impulsiveviolent'
p2624
I1
sS'!sneaking'
p2625
I1
sS'!blogpot'
p2626
I1
sS'!cameron'
p2627
I1
sS'!quothotquot'
p2628
I1
sS'!recovering'
p2629
I2
sS'!plans'
p2630
I1
sS'!hav'
p2631
I3
sS'!plant'
p2632
I2
sS'!wack'
p2633
I1
sS'!daft'
p2634
I1
sS'!little'
p2635
I3
sS'!answer'
p2636
I16
sS'!jobbless'
p2637
I1
sS'!quotwatch'
p2638
I1
sS'!waking'
p2639
I5
sS'!kennesaw'
p2640
I1
sS'!w8ing'
p2641
I1
sS'!yelled'
p2642
I1
sS'!2day'
p2643
I1
sS'!quotjust'
p2644
I1
sS'!operate'
p2645
I1
sS'!prisoner'
p2646
I1
sS'!boy'
p2647
I1
sS'!polish'
p2648
I1
sS'!predominantly'
p2649
I1
sS'!sunburnt'
p2650
I1
sS'!hyperventilating'
p2651
I1
sS'!ff'
p2652
I1
sS'!yell'
p2653
I1
sS'!ladylike'
p2654
I1
sS'!ft'
p2655
I1
sS'!wilson'
p2656
I1
sS'!archer'
p2657
I1
sS'!untill'
p2658
I2
sS'!searching'
p2659
I1
sS'!quotlovequot'
p2660
I1
sS'!smalllquot'
p2661
I1
sS'!crazyjust'
p2662
I1
sS'!reaallyy'
p2663
I1
sS'!enuff'
p2664
I2
sS'!jay'
p2665
I1
sS'!hugely'
p2666
I1
sS'!howtopassby'
p2667
I1
sS'!askquot'
p2668
I2
sS'!rt'
p2669
I1
sS'!reporting'
p2670
I1
sS'!solving'
p2671
I1
sS'!cocky'
p2672
I1
sS'!game'
p2673
I2
sS'!permenent'
p2674
I1
sS'!quotgoing'
p2675
I1
sS'!twitters'
p2676
I1
sS'!decidequot'
p2677
I1
sS'!ness'
p2678
I1
sS'!smoke'
p2679
I2
sS'!stable'
p2680
I1
sS'!manchester'
p2681
I1
sS'!diggin'
p2682
I1
sS'!quotryanquot'
p2683
I1
sS'!sometimes'
p2684
I3
sS'!thank'
p2685
I6
sS'!missed'
p2686
I3
sS'!started'
p2687
I4
sS'!mumbai'
p2688
I1
sS'!leftovers'
p2689
I1
sS'!drawn'
p2690
I1
sS'!req'
p2691
I1
sS'!crap'
p2692
I3
sS'!flawed'
p2693
I1
sS'!behaving'
p2694
I3
sS'!fair'
p2695
I43
sS'!something'
p2696
I13
sS'!odd'
p2697
I3
sS'!vid'
p2698
I1
sS'!evangelise'
p2699
I1
sS'!umm'
p2700
I1
sS'!yours'
p2701
I11
sS'!ella'
p2702
I1
sS'!via'
p2703
I1
sS'!poking'
p2704
I1
sS'!mock'
p2705
I1
sS'!random'
p2706
I6
sS'!camp'
p2707
I1
sS'!youre'
p2708
I7
sS'!pee'
p2709
I1
sS'!coughs'
p2710
I1
sS'!broke'
p2711
I2
sS'!underload'
p2712
I1
sS'!offend'
p2713
I1
sS'!typical'
p2714
I2
sS'!round'
p2715
I1
sS'!rugby'
p2716
I1
sS'!got'
p2717
I25
sS'!epic'
p2718
I1
sS'!singing'
p2719
I1
sS'!invading'
p2720
I1
sS'!welcome'
p2721
I2
sS'!tipping'
p2722
I1
sS'!inform'
p2723
I1
sS'!law'
p2724
I1
sS'!lay'
p2725
I1
sS'!terrible'
p2726
I1
sS'!studying'
p2727
I7
sS'!speaking'
p2728
I4
sS'!spamming'
p2729
I2
sS'!brown'
p2730
I1
sS'!80'
p2731
I1
sS'!judgemental'
p2732
I1
sS'!84'
p2733
I1
sS'!sexy'
p2734
I1
sS'!blazing'
p2735
I1
sS'!ever'
p2736
I26
sS'!fairy'
p2737
I1
sS'!suprise'
p2738
I2
sS'!yetsorry'
p2739
I1
sS'!home'
p2740
I18
sS'!doctor'
p2741
I1
sS'!nowquot'
p2742
I1
sS'!careless'
p2743
I1
sS'!pursed'
p2744
I1
sS'!near'
p2745
I8
sS'!football'
p2746
I2
sS'!worries'
p2747
I1
sS'!about'
p2748
I36
sS'!painless'
p2749
I1
sS'!nick'
p2750
I1
sS'!twins'
p2751
I1
sS'!female'
p2752
I1
sS'!reply'
p2753
I29
sS'!worried'
p2754
I14
sS'!magic'
p2755
I2
sS'!enoughquot'
p2756
I1
sS'!ringing'
p2757
I1
sS'!rule'
p2758
I1
sS'!hahaha'
p2759
I4
sS'!textn'
p2760
I1
sS'!brush'
p2761
I1
sS'!delineated'
p2762
I1
sS'!suffer'
p2763
I2
sS'!elmo'
p2764
I1
sS'!starving'
p2765
I1
sS'!waaaiiit'
p2766
I1
sS'!workingill'
p2767
I1
sS'!gonick'
p2768
I1
sS'!ruining'
p2769
I1
sS'!saw'
p2770
I2
sS'!fail'
p2771
I10
sS'!mirrored'
p2772
I1
sS'!never'
p2773
I5
sS'!disappointed'
p2774
I4
sS'!sck'
p2775
I1
sS'!wandering'
p2776
I1
sS'!bum'
p2777
I1
sS'!also'
p2778
I1
sS'!say'
p2779
I140
sS'!wp'
p2780
I1
sS'!but'
p2781
I73
sS'!pregnant'
p2782
I4
sS'!we'
p2783
I23
sS'!pinpoint'
p2784
I2
sS'!owning'
p2785
I1
sS'!buy'
p2786
I23
sS'!toom'
p2787
I1
sS'!ainrs'
p2788
I1
sS'!peaches'
p2789
I1
sS'!appeal'
p2790
I1
sS'!wankers'
p2791
I1
sS'!purchase'
p2792
I1
sS'!save'
p2793
I6
sS'!melting'
p2794
I2
sS'!preclude'
p2795
I1
sS'!tellin'
p2796
I2
sS'!kicked'
p2797
I1
sS'!heretical'
p2798
I1
sS'!unusual'
p2799
I1
sS'!w8'
p2800
I14
sS'!quotsarcasticquot'
p2801
I1
sS'!reorganising'
p2802
I1
sS'!soup'
p2803
I2
sS'!youd'
p2804
I1
sS'!blogher'
p2805
I1
sS'!dear'
p2806
I1
sS'!fed'
p2807
I1
sS'!jodie'
p2808
I1
sS'!access'
p2809
I4
sS'!performed'
p2810
I1
sS'!finally'
p2811
I1
sS'!poor'
p2812
I1
sS'!overdoing'
p2813
I1
sS'!quota'
p2814
I2
sS'!soo'
p2815
I5
sS'!glommy'
p2816
I1
sS'!worthyquot'
p2817
I1
sS'!befoore'
p2818
I1
sS'!real'
p2819
I18
sS'!lashing'
p2820
I1
sS'!opinion'
p2821
I1
sS'!corny'
p2822
I1
sS'!read'
p2823
I61
sS'!south'
p2824
I2
sS'!nobody'
p2825
I3
sS'!carekids'
p2826
I1
sS'!recording'
p2827
I2
sS'!known'
p2828
I2
sS'!windy'
p2829
I1
sS'!powerquot'
p2830
I1
sS'!miley'
p2831
I2
sS'!ew'
p2832
I1
sS'!invisible'
p2833
I1
sS'!scripted'
p2834
I1
sS'!sign'
p2835
I2
sS'!depressed'
p2836
I2
sS'!dodgers'
p2837
I1
sS'!ee'
p2838
I1
sS'!gym'
p2839
I1
sS'!urgent'
p2840
I1
sS'!ponder'
p2841
I1
sS'!google'
p2842
I7
sS'!decide'
p2843
I41
sS'!certain'
p2844
I3
sS'!stooop'
p2845
I1
sS'!dottydee11'
p2846
I1
sS'!hack'
p2847
I2
sS'!american'
p2848
I4
sS'!clocking'
p2849
I1
sS'!live'
p2850
I45
sS'!found'
p2851
I3
sS'!nothing'
p2852
I2
sS'!catholic'
p2853
I3
sS'!715'
p2854
I1
sS'!foolin'
p2855
I1
sS'!condescendingly'
p2856
I1
sS'!punch'
p2857
I1
sS'!deal'
p2858
I5
sS'!subscribe'
p2859
I3
sS'!getcha'
p2860
I1
sS'!e3'
p2861
I2
sS'!automated'
p2862
I3
sS'!000'
p2863
I1
sS'!value'
p2864
I1
sS'!vin'
p2865
I1
sS'!speek'
p2866
I2
sS'!single'
p2867
I5
sS'!coming'
p2868
I32
sS'!limited'
p2869
I2
sS'!intentional'
p2870
I1
sS'!broken'
p2871
I4
sS'!cry'
p2872
I6
sS'!noing'
p2873
I1
sS'!adopting'
p2874
I1
sS'!blocking'
p2875
I1
sS'!eavesdropping'
p2876
I1
sS'!ending'
p2877
I1
sS'!reset'
p2878
I2
sS'!productive'
p2879
I1
sS'!trapped'
p2880
I1
sS'!perfect'
p2881
I11
sS'!fans'
p2882
I1
sS'!moose'
p2883
I1
sS'!phoning'
p2884
I2
sS'!reers'
p2885
I1
sS'!guard'
p2886
I1
sS'!flirting'
p2887
I2
sS'!governmentquot'
p2888
I1
sS'!it'
p2889
I28
sS'!perfected'
p2890
I1
sS'!could'
p2891
I1
sS'!scratch'
p2892
I2
sS'!ure'
p2893
I1
sS'!melt'
p2894
I1
sS'!everybody'
p2895
I2
sS'!shocked'
p2896
I3
sS'!cake'
p2897
I1
sS'!showy'
p2898
I1
sS'!super'
p2899
I7
sS'!childish'
p2900
I1
sS'!changin'
p2901
I1
sS'!twitter'
p2902
I15
sS'!pigeon'
p2903
I1
sS'!cure'
p2904
I5
sS'!touched'
p2905
I1
sS'!havin'
p2906
I1
sS'!yeah'
p2907
I1
sS'!fuckin'
p2908
I1
sS'!obsessed'
p2909
I4
sS'!hung'
p2910
I2
sS'!bear'
p2911
I5
sS'!year'
p2912
I1
sS'!blame'
p2913
I18
sS'!realizing'
p2914
I1
sS'!whining'
p2915
I2
sS'!lots'
p2916
I3
sS'!fesitival'
p2917
I1
sS'!everything'
p2918
I5
sS'!appropriate'
p2919
I1
sS'!funn'
p2920
I1
sS'!multitask'
p2921
I2
sS'!homophobic'
p2922
I1
sS'!ham'
p2923
I1
sS'!receive'
p2924
I6
sS'!followin'
p2925
I7
sS'!camera'
p2926
I1
sS'!esplain'
p2927
I1
sS'!4ever'
p2928
I1
sS'!ghetto'
p2929
I1
sS'!believ'
p2930
I1
sS'!where'
p2931
I11
sS'!maya'
p2932
I3
sS'!fond'
p2933
I4
sS'!forced'
p2934
I2
sS'!eaven'
p2935
I1
sS'!jewelry'
p2936
I1
sS'!just'
p2937
I242
sS'!advising'
p2938
I1
sS'!maybe'
p2939
I5
sS'!recognised'
p2940
I1
sS'!direct'
p2941
I1
sS'!helpin'
p2942
I1
sS'!still'
p2943
I14
sS'!cleaver'
p2944
I1
sS'!rosies'
p2945
I1
sS'!preventitive'
p2946
I1
sS'!twitterdumping'
p2947
I1
sS'!tuesday'
p2948
I3
sS'!commemorating'
p2949
I1
sS'!addicted'
p2950
I6
sS'!realz'
p2951
I1
sS'!thru'
p2952
I1
sS'!gangzz'
p2953
I1
sS'!neglecting'
p2954
I1
sS'!funnyy'
p2955
I1
sS'!disfunctional'
p2956
I1
sS'!eligible'
p2957
I1
sS'!clicked'
p2958
I1
sS'!milk'
p2959
I1
sS'!support'
p2960
I3
sS'!juggle'
p2961
I1
sS'!since'
p2962
I11
sS'!display'
p2963
I1
sS'!staring'
p2964
I2
sS'!scare'
p2965
I5
sS'!ripping'
p2966
I1
sS'!returning'
p2967
I1
sS'!scary'
p2968
I7
sS'!excercise'
p2969
I1
sS'!calnewman'
p2970
I1
sS'!and'
p2971
I18
sS'!tomorrow'
p2972
I8
sS'!while'
p2973
I3
sS'!anyone'
p2974
I3
sS'!raininlol'
p2975
I1
sS'!forever'
p2976
I2
sS'!simtect'
p2977
I1
sS'!fleecing'
p2978
I1
sS'!missing'
p2979
I18
sS'!leave'
p2980
I37
sS'!getting'
p2981
I76
sS'!suggest'
p2982
I1
sS'!resellers'
p2983
I1
sS'!clunky'
p2984
I1
sS'!heterosexual'
p2985
I1
sS'!adding'
p2986
I1
sS'!hell'
p2987
I2
sS'!coincident'
p2988
I1
sS'!serve'
p2989
I3
sS'!exclude'
p2990
I1
sS'!stand'
p2991
I66
sS'!outta'
p2992
I2
sS'!advice'
p2993
I1
sS'!competencybasd'
p2994
I1
sS'!immune'
p2995
I1
sS'!envying'
p2996
I2
sS'!cheer'
p2997
I1
sS'!dawg'
p2998
I1
sS'!control'
p2999
I4
sS'!launched'
p3000
I1
sS'!pieces'
p3001
I1
sS'!hinder'
p3002
I1
sS'!harder'
p3003
I2
sS'!malaysian'
p3004
I1
sS'!pronounce'
p3005
I3
sS'!meal'
p3006
I1
sS'!dave'
p3007
I2
sS'!lyxox'
p3008
I1
sS'!taylor'
p3009
I1
sS'!distrub'
p3010
I1
sS'!romeos'
p3011
I1
sS'!kripalu'
p3012
I1
sS'!why'
p3013
I7
sS'!whore'
p3014
I1
sS'!tricking'
p3015
I1
sS'!sounds'
p3016
I1
sS'!changes'
p3017
I1
sS'!aids'
p3018
I1
sS'!precious'
p3019
I1
sS'!restricted'
p3020
I1
sS'!trip'
p3021
I1
sS'!retarded'
p3022
I1
sS'!convey'
p3023
I1
sS'!messed'
p3024
I1
sS'!restore'
p3025
I1
sS'!libertys'
p3026
I1
sS'!unlikely'
p3027
I1
sS'!nightmarish'
p3028
I1
sS'!down'
p3029
I12
sS'!quotcrazyquot'
p3030
I1
sS'!repeating'
p3031
I1
sS'!ducking'
p3032
I1
sS'!paralised'
p3033
I1
sS'!wandered'
p3034
I1
sS'!tempting'
p3035
I1
sS'!causing'
p3036
I1
sS'!necesary'
p3037
I1
sS'!james'
p3038
I1
sS'!taken'
p3039
I5
sS'!rnough'
p3040
I1
sS'!logging'
p3041
I1
sS'!enthusiastic'
p3042
I1
sS'!mad'
p3043
I20
sS'!sticking'
p3044
I1
sS'!bathing'
p3045
I1
sS'!planning'
p3046
I9
sS'!bummed'
p3047
I1
sS'!out'
p3048
I20
sS'!hemmycho'
p3049
I1
sS'!tickel'
p3050
I1
sS'!school'
p3051
I3
sS'!soothing'
p3052
I1
sS'!sipping'
p3053
I1
sS'!quotsecond'
p3054
I1
sS'!psychical'
p3055
I1
sS'!mess'
p3056
I8
sS'!rutgers'
p3057
I1
sS'!feed'
p3058
I4
sS'!bishop'
p3059
I1
sS'!wearing'
p3060
I15
sS'!mesh'
p3061
I1
sS'!feel'
p3062
I39
sS'!birthday'
p3063
I1
sS'!heard'
p3064
I27
sS'!relax'
p3065
I3
sS'!smoking'
p3066
I4
sS'!different'
p3067
I1
sS'!lauryn'
p3068
I1
sS'!anyway'
p3069
I1
sS'!prove'
p3070
I1
sS'!run'
p3071
I12
sS'!posted'
p3072
I3
sS'!haeing'
p3073
I1
sS'!nearly'
p3074
I15
sS'!btw'
p3075
I3
sS'!negating'
p3076
I1
sS'!sureee'
p3077
I1
sS'!conceited'
p3078
I1
sS'!4get'
p3079
I1
sS'!string'
p3080
I1
sS'!geeks'
p3081
I2
sS'!sue'
p3082
I2
sS'!attempt'
p3083
I1
sS'!geeky'
p3084
I1
sS'!cc'
p3085
I1
sS'!angry'
p3086
I2
sS'!hard'
p3087
I27
sS'!refurbished'
p3088
I1
sS'!biscuit'
p3089
I1
sS'!touching'
p3090
I2
sS'!flame'
p3091
I1
sS'!iphone'
p3092
I1
sS'!ill'
p3093
I26
sS'!point'
p3094
I1
sS'!twittered'
p3095
I1
sS'!incude'
p3096
I1
sS'!twilight'
p3097
I2
sS'!without'
p3098
I6
sS'!unfortunately'
p3099
I2
sS'!snotbuster'
p3100
I1
sS'!brokenquot'
p3101
I1
sS'!mdear'
p3102
I1
sS'!blank'
p3103
I1
sS'!workingin'
p3104
I1
sS'!creeped'
p3105
I1
sS'!bowl'
p3106
I1
sS'!pressure'
p3107
I1
sS'!ascot'
p3108
I1
sS'!blushing'
p3109
I1
sS'!impeded'
p3110
I1
sS'!defending'
p3111
I1
sS'!badi'
p3112
I2
sS'!video'
p3113
I1
sS'!klein'
p3114
I1
sS'!dance'
p3115
I2
sS'!weirdlooking'
p3116
I1
sS'!cats'
p3117
I1
sS'!pink'
p3118
I1
sS'!motorboat'
p3119
I1
sS'!drop'
p3120
I4
sS'!promised'
p3121
I1
sS'!supposed'
p3122
I27
sS'!scared'
p3123
I19
sS'!cooler'
p3124
I1
sS'!most'
p3125
I2
sS'!aware'
p3126
I7
sS'!analysing'
p3127
I1
sS'!seperate'
p3128
I1
sS'!dying'
p3129
I5
sS'!recite'
p3130
I1
sS'!withstanding'
p3131
I1
sS'!sam'
p3132
I1
sS'!brought'
p3133
I1
sS'!dd'
p3134
I1
sS'!ponying'
p3135
I1
sS'!da'
p3136
I3
sS'!do'
p3137
I167
sS'!dl'
p3138
I1
sS'!rooting'
p3139
I1
sS'!xactly'
p3140
I1
sS'!reduce'
p3141
I1
sS'!biting'
p3142
I1
sS'!giviingg'
p3143
I1
sS'!worry'
p3144
I14
sS'!quotwhosquot'
p3145
I1
sS'!pub'
p3146
I1
sS'!creeping'
p3147
I1
sS'!interrupt'
p3148
I1
sS'!pie'
p3149
I1
sS'!brain'
p3150
I2
sS'!breath'
p3151
I1
sS'!moisturising'
p3152
I1
sS'!goodquot'
p3153
I1
sS'!switching'
p3154
I1
sS'!weird'
p3155
I19
sS'!tonite'
p3156
I1
sS'!frustrating'
p3157
I1
sS'!107'
p3158
I1
sS'!blind'
p3159
I2
sS'!connect'
p3160
I1
sS'!quotaquot'
p3161
I1
sS'!contacted'
p3162
I1
sS'!properly'
p3163
I2
sS'!raja'
p3164
I1
sS'!misspell'
p3165
I1
sS'!persisting'
p3166
I1
sS'!scroll'
p3167
I1
sS'!disturb'
p3168
I5
sS'!member'
p3169
I1
sS'!after'
p3170
I9
sS'!duke'
p3171
I1
sS'!childishness'
p3172
I1
sS'!adjusted'
p3173
I1
sS'!griping'
p3174
I1
sS'!livetweet'
p3175
I1
sS'!yourself'
p3176
I1
sS'!skeptical'
p3177
I1
sS'!merrick'
p3178
I1
sS'!englands'
p3179
I1
sS'!denial'
p3180
I2
sS'!dealin'
p3181
I1
sS'!gonna'
p3182
I151
sS'!loaded'
p3183
I1
sS'!listed'
p3184
I2
sS'!quotjai'
p3185
I1
sS'!sell'
p3186
I7
sS'!off'
p3187
I8
sS'!twerps'
p3188
I1
sS'!rubish'
p3189
I1
sS'!stfu'
p3190
I1
sS'!quiet'
p3191
I2
sS'!use'
p3192
I42
sS'!kill'
p3193
I15
sS'!change'
p3194
I21
sS'!bald'
p3195
I1
sS'!involved'
p3196
I7
sS'!patrick'
p3197
I1
sS'!thecarteriii'
p3198
I1
sS'!fun'
p3199
I22
sS'!divulge'
p3200
I1
sS'!pessimistic'
p3201
I1
sS'!abandoning'
p3202
I1
sS'!anoint'
p3203
I1
sS'!teach'
p3204
I2
sS'!corruption'
p3205
I1
sS'!delicate'
p3206
I1
sS'!tmi'
p3207
I1
sS'!diary'
p3208
I1
sS'!safe'
p3209
I4
sS'!crush'
p3210
I2
sS'!hallucinating'
p3211
I1
sS'!crying'
p3212
I5
sS'!mocking'
p3213
I2
sS'!dat'
p3214
I1
sS'!realise'
p3215
I1
sS'!quotdidi'
p3216
I1
sS'!waving'
p3217
I1
sS'!earth'
p3218
I1
sS'!mee'
p3219
I2
sS'!dollars'
p3220
I1
sS'!envy'
p3221
I4
sS'!clever'
p3222
I1
sS'!jus'
p3223
I2
sS'!guessing'
p3224
I1
sS'!visiting'
p3225
I2
sS'!sorry'
p3226
I11
sS'!fool'
p3227
I2
sS'!secret'
p3228
I1
sS'!avoiding'
p3229
I2
sS'!kansas'
p3230
I1
sS'!stomach'
p3231
I4
sS'!smells'
p3232
I1
sS'!trash'
p3233
I1
sS'!blow'
p3234
I2
sS'!install'
p3235
I1
sS'!quotwhatquot'
p3236
I1
sS'!players'
p3237
I1
sS'!beloeve'
p3238
I1
sS'!630'
p3239
I1
sS'!red'
p3240
I1
sS'!educational'
p3241
I1
sS'!waittt'
p3242
I3
sS'!physically'
p3243
I1
sS'!sports'
p3244
I1
sS'!flickr'
p3245
I1
sS'!ellis'
p3246
I1
sS'!weddings'
p3247
I1
sS'!grounder'
p3248
I1
sS'!rembr'
p3249
I1
sS'!mostly'
p3250
I1
sS'!computer'
p3251
I2
sS'!discriminate'
p3252
I1
sS'!rsvp'
p3253
I1
sS'!trinity'
p3254
I1
sS'!suffering'
p3255
I1
sS'!pumped'
p3256
I1
sS'!lying'
p3257
I5
sS'!sat'
p3258
I3
sS'!thick'
p3259
I1
sS'!squish'
p3260
I1
sS'!preggo'
p3261
I1
sS'!niki'
p3262
I1
sS'!sniff'
p3263
I1
sS'!cheating'
p3264
I5
sS'!touchedlol'
p3265
I1
sS'!playing'
p3266
I25
sS'!nap'
p3267
I1
sS'!lulquot'
p3268
I1
sS'!featured'
p3269
I2
sS'!wiat'
p3270
I4
sS'!irish'
p3271
I1
sS'!stalking'
p3272
I6
sS'!erin'
p3273
I1
sS'!bumped'
p3274
I1
sS'!thanks'
p3275
I7
sS'!regular'
p3276
I1
sS'!enjoyingthe'
p3277
I1
sS'!ima'
p3278
I2
sS'!nah'
p3279
I1
sS'!belivie'
p3280
I1
sS'!sayquoti'
p3281
I1
sS'!international'
p3282
I1
sS'!lesbian'
p3283
I1
sS'!foolish'
p3284
I1
sS'!beat'
p3285
I56
sS'!left'
p3286
I2
sS'!return'
p3287
I5
sS'!sayin'
p3288
I5
sS'!workout'
p3289
I2
sS'!eitha'
p3290
I1
sS'!jaded'
p3291
I1
sS'!informed'
p3292
I2
sS'!them'
p3293
I6
sS'!rant'
p3294
I1
sS'!runningquot'
p3295
I1
sS'!climb'
p3296
I1
sS'!wassup'
p3297
I1
sS'!foresee'
p3298
I1
sS'!daemon'
p3299
I1
sS'!justify'
p3300
I1
sS'!doughy'
p3301
I1
sS'!uberberry'
p3302
I1
sS'!attributingknowing'
p3303
I1
sS'!dirt'
p3304
I1
sS'!tuning'
p3305
I1
sS'!comfortable'
p3306
I2
sS'!guinness'
p3307
I1
sS'!invitequot'
p3308
I1
sS'!half'
p3309
I6
sS'!stalk'
p3310
I1
sS'!gossip'
p3311
I1
sS'!sissy'
p3312
I1
sS'!belive'
p3313
I16
sS'!hilary'
p3314
I1
sS'!sad'
p3315
I34
sS'!shatner'
p3316
I1
sS'!hunger'
p3317
I1
sS'!intend'
p3318
I1
sS'!come'
p3319
I71
sS'!tread'
p3320
I1
sS'!valid'
p3321
I1
sS'!our'
p3322
I10
sS'!mac'
p3323
I1
sS'!dazzled'
p3324
I1
sS'!very'
p3325
I106
sS'!man'
p3326
I3
sS'!selecting'
p3327
I1
sS'!doing'
p3328
I86
sS'!treat'
p3329
I1
sS'!message'
p3330
I4
sS'!fake'
p3331
I4
sS'!available'
p3332
I11
sS'!more'
p3333
I20
sS'!dispensable'
p3334
I1
sS'!may'
p3335
I2
sS'!psming'
p3336
I1
sS'!stefano'
p3337
I1
sS'!recommend'
p3338
I7
sS'!sun'
p3339
I1
sS'!dye'
p3340
I1
sS'!money'
p3341
I1
sS'!shitting'
p3342
I1
sS'!aged'
p3343
I1
sS'!polite'
p3344
I1
sS'!doquot'
p3345
I1
sS'!surprises'
p3346
I1
sS'!eco'
p3347
I2
sS'!sur'
p3348
I1
sS'!must'
p3349
I1
sS'!answered'
p3350
I1
sS'!quorum'
p3351
I1
sS'!sweating'
p3352
I1
sS'!twatt'
p3353
I1
sS'!smug'
p3354
I1
sS'!cracked'
p3355
I1
sS'!ver8'
p3356
I1
sS'!twit'
p3357
I1
sS'!interntional'
p3358
I1
sS'!bit'
p3359
I1
sS'!label'
p3360
I1
sS'!crash'
p3361
I2
sS'!blockbuster'
p3362
I1
sS'!bio'
p3363
I1
sS'!100'
p3364
I20
sS'!hayfever'
p3365
I1
sS'!big'
p3366
I14
sS'!predictable'
p3367
I1
sS'!sleeep'
p3368
I4
sS'!jumping'
p3369
I1
sS'!cock'
p3370
I1
sS'!cooked'
p3371
I3
sS'!flim'
p3372
I1
sS'!loving'
p3373
I1
sS'!leaving'
p3374
I11
sS'!up'
p3375
I28
sS'!us'
p3376
I4
sS'!ur'
p3377
I10
sS'!uu'
p3378
I1
sS'!amp'
p3379
I1
sS'!ignore'
p3380
I3
sS'!mss'
p3381
I1
s.